Archive member included to satisfy reference by file (symbol)

c:/program files/avr8-gnu-toolchain-win32_x86/bin/../lib/gcc/avr/5.4.0/../../../../avr/lib/avrxmega7\libm.a(ceil.o)
                              Bin/NFC_Command.o (ceil)
c:/program files/avr8-gnu-toolchain-win32_x86/bin/../lib/gcc/avr/5.4.0/../../../../avr/lib/avrxmega7\libm.a(divsf3.o)
                              Bin/NFC_Command.o (__divsf3)
c:/program files/avr8-gnu-toolchain-win32_x86/bin/../lib/gcc/avr/5.4.0/../../../../avr/lib/avrxmega7\libm.a(divsf3x.o)
                              c:/program files/avr8-gnu-toolchain-win32_x86/bin/../lib/gcc/avr/5.4.0/../../../../avr/lib/avrxmega7\libm.a(divsf3.o) (__divsf3x)
c:/program files/avr8-gnu-toolchain-win32_x86/bin/../lib/gcc/avr/5.4.0/../../../../avr/lib/avrxmega7\libm.a(fixunssfsi.o)
                              Bin/NFC_Command.o (__fixunssfsi)
c:/program files/avr8-gnu-toolchain-win32_x86/bin/../lib/gcc/avr/5.4.0/../../../../avr/lib/avrxmega7\libm.a(floatsisf.o)
                              Bin/NFC_Command.o (__floatunsisf)
c:/program files/avr8-gnu-toolchain-win32_x86/bin/../lib/gcc/avr/5.4.0/../../../../avr/lib/avrxmega7\libm.a(fp_inf.o)
                              c:/program files/avr8-gnu-toolchain-win32_x86/bin/../lib/gcc/avr/5.4.0/../../../../avr/lib/avrxmega7\libm.a(divsf3x.o) (__fp_inf)
c:/program files/avr8-gnu-toolchain-win32_x86/bin/../lib/gcc/avr/5.4.0/../../../../avr/lib/avrxmega7\libm.a(fp_mintl.o)
                              c:/program files/avr8-gnu-toolchain-win32_x86/bin/../lib/gcc/avr/5.4.0/../../../../avr/lib/avrxmega7\libm.a(ceil.o) (__fp_mintl)
c:/program files/avr8-gnu-toolchain-win32_x86/bin/../lib/gcc/avr/5.4.0/../../../../avr/lib/avrxmega7\libm.a(fp_mpack.o)
                              c:/program files/avr8-gnu-toolchain-win32_x86/bin/../lib/gcc/avr/5.4.0/../../../../avr/lib/avrxmega7\libm.a(ceil.o) (__fp_mpack)
c:/program files/avr8-gnu-toolchain-win32_x86/bin/../lib/gcc/avr/5.4.0/../../../../avr/lib/avrxmega7\libm.a(fp_nan.o)
                              c:/program files/avr8-gnu-toolchain-win32_x86/bin/../lib/gcc/avr/5.4.0/../../../../avr/lib/avrxmega7\libm.a(divsf3x.o) (__fp_nan)
c:/program files/avr8-gnu-toolchain-win32_x86/bin/../lib/gcc/avr/5.4.0/../../../../avr/lib/avrxmega7\libm.a(fp_pscA.o)
                              c:/program files/avr8-gnu-toolchain-win32_x86/bin/../lib/gcc/avr/5.4.0/../../../../avr/lib/avrxmega7\libm.a(divsf3x.o) (__fp_pscA)
c:/program files/avr8-gnu-toolchain-win32_x86/bin/../lib/gcc/avr/5.4.0/../../../../avr/lib/avrxmega7\libm.a(fp_pscB.o)
                              c:/program files/avr8-gnu-toolchain-win32_x86/bin/../lib/gcc/avr/5.4.0/../../../../avr/lib/avrxmega7\libm.a(divsf3x.o) (__fp_pscB)
c:/program files/avr8-gnu-toolchain-win32_x86/bin/../lib/gcc/avr/5.4.0/../../../../avr/lib/avrxmega7\libm.a(fp_round.o)
                              c:/program files/avr8-gnu-toolchain-win32_x86/bin/../lib/gcc/avr/5.4.0/../../../../avr/lib/avrxmega7\libm.a(divsf3.o) (__fp_round)
c:/program files/avr8-gnu-toolchain-win32_x86/bin/../lib/gcc/avr/5.4.0/../../../../avr/lib/avrxmega7\libm.a(fp_split3.o)
                              c:/program files/avr8-gnu-toolchain-win32_x86/bin/../lib/gcc/avr/5.4.0/../../../../avr/lib/avrxmega7\libm.a(divsf3x.o) (__fp_split3)
c:/program files/avr8-gnu-toolchain-win32_x86/bin/../lib/gcc/avr/5.4.0/../../../../avr/lib/avrxmega7\libm.a(fp_trunc.o)
                              c:/program files/avr8-gnu-toolchain-win32_x86/bin/../lib/gcc/avr/5.4.0/../../../../avr/lib/avrxmega7\libm.a(ceil.o) (__fp_trunc)
c:/program files/avr8-gnu-toolchain-win32_x86/bin/../lib/gcc/avr/5.4.0/../../../../avr/lib/avrxmega7\libm.a(fp_zero.o)
                              c:/program files/avr8-gnu-toolchain-win32_x86/bin/../lib/gcc/avr/5.4.0/../../../../avr/lib/avrxmega7\libm.a(fixunssfsi.o) (__fp_zero)
c:/program files/avr8-gnu-toolchain-win32_x86/bin/../lib/gcc/avr/5.4.0/../../../../avr/lib/avrxmega7\libm.a(gesf2.o)
                              Bin/NFC_Command.o (__gtsf2)
c:/program files/avr8-gnu-toolchain-win32_x86/bin/../lib/gcc/avr/5.4.0/../../../../avr/lib/avrxmega7\libm.a(fp_cmp.o)
                              c:/program files/avr8-gnu-toolchain-win32_x86/bin/../lib/gcc/avr/5.4.0/../../../../avr/lib/avrxmega7\libm.a(gesf2.o) (__fp_cmp)
c:/program files/avr8-gnu-toolchain-win32_x86/bin/../lib/gcc/avr/5.4.0/avrxmega7\libgcc.a(_udivmodqi4.o)
                              Bin/Crypto1.o (__udivmodqi4)
c:/program files/avr8-gnu-toolchain-win32_x86/bin/../lib/gcc/avr/5.4.0/avrxmega7\libgcc.a(_udivmodhi4.o)
                              Bin/Commands.o (__udivmodhi4)
c:/program files/avr8-gnu-toolchain-win32_x86/bin/../lib/gcc/avr/5.4.0/avrxmega7\libgcc.a(_exit.o)
                              c:/program files/avr8-gnu-toolchain-win32_x86/bin/../lib/gcc/avr/5.4.0/../../../../avr/lib/avrxmega7/crtatxmega128a4u.o (exit)
c:/program files/avr8-gnu-toolchain-win32_x86/bin/../lib/gcc/avr/5.4.0/avrxmega7\libgcc.a(_copy_data.o)
                              Bin/Button.o (__do_copy_data)
c:/program files/avr8-gnu-toolchain-win32_x86/bin/../lib/gcc/avr/5.4.0/avrxmega7\libgcc.a(_clear_bss.o)
                              Bin/Chameleon-Mini.o (__do_clear_bss)
c:/program files/avr8-gnu-toolchain-win32_x86/bin/../lib/gcc/avr/5.4.0/avrxmega7\libgcc.a(_mulshisi3.o)
                              Bin/AntennaLevel.o (__mulshisi3)
c:/program files/avr8-gnu-toolchain-win32_x86/bin/../lib/gcc/avr/5.4.0/avrxmega7\libgcc.a(_muluhisi3.o)
                              c:/program files/avr8-gnu-toolchain-win32_x86/bin/../lib/gcc/avr/5.4.0/avrxmega7\libgcc.a(_mulshisi3.o) (__muluhisi3)
c:/program files/avr8-gnu-toolchain-win32_x86/bin/../lib/gcc/avr/5.4.0/avrxmega7\libgcc.a(_umulhisi3.o)
                              c:/program files/avr8-gnu-toolchain-win32_x86/bin/../lib/gcc/avr/5.4.0/avrxmega7\libgcc.a(_muluhisi3.o) (__umulhisi3)
c:/program files/avr8-gnu-toolchain-win32_x86/bin/../lib/gcc/avr/5.4.0/../../../../avr/lib/avrxmega7\libc.a(rand.o)
                              Bin/Random.o (rand)
c:/program files/avr8-gnu-toolchain-win32_x86/bin/../lib/gcc/avr/5.4.0/../../../../avr/lib/avrxmega7\libc.a(memcpy_P.o)
                              Bin/Configuration.o (memcpy_P)
c:/program files/avr8-gnu-toolchain-win32_x86/bin/../lib/gcc/avr/5.4.0/../../../../avr/lib/avrxmega7\libc.a(strcmp_P.o)
                              Bin/Map.o (strcmp_P)
c:/program files/avr8-gnu-toolchain-win32_x86/bin/../lib/gcc/avr/5.4.0/../../../../avr/lib/avrxmega7\libc.a(strlen_P.o)
                              Bin/CDCClassDevice.o (__strlen_P)
c:/program files/avr8-gnu-toolchain-win32_x86/bin/../lib/gcc/avr/5.4.0/../../../../avr/lib/avrxmega7\libc.a(strncpy_P.o)
                              Bin/Map.o (strncpy_P)
c:/program files/avr8-gnu-toolchain-win32_x86/bin/../lib/gcc/avr/5.4.0/../../../../avr/lib/avrxmega7\libc.a(memcmp.o)
                              Bin/MifareUltralight.o (memcmp)
c:/program files/avr8-gnu-toolchain-win32_x86/bin/../lib/gcc/avr/5.4.0/../../../../avr/lib/avrxmega7\libc.a(memcpy.o)
                              Bin/Log.o (memcpy)
c:/program files/avr8-gnu-toolchain-win32_x86/bin/../lib/gcc/avr/5.4.0/../../../../avr/lib/avrxmega7\libc.a(memmove.o)
                              Bin/Log.o (memmove)
c:/program files/avr8-gnu-toolchain-win32_x86/bin/../lib/gcc/avr/5.4.0/../../../../avr/lib/avrxmega7\libc.a(memset.o)
                              Bin/MifareUltralight.o (memset)
c:/program files/avr8-gnu-toolchain-win32_x86/bin/../lib/gcc/avr/5.4.0/../../../../avr/lib/avrxmega7\libc.a(strchr.o)
                              Bin/Commands.o (strchr)
c:/program files/avr8-gnu-toolchain-win32_x86/bin/../lib/gcc/avr/5.4.0/../../../../avr/lib/avrxmega7\libc.a(strcpy.o)
                              Bin/Reader14443A.o (strcpy)
c:/program files/avr8-gnu-toolchain-win32_x86/bin/../lib/gcc/avr/5.4.0/../../../../avr/lib/avrxmega7\libc.a(snprintf.o)
                              Bin/Reader14443A.o (snprintf)
c:/program files/avr8-gnu-toolchain-win32_x86/bin/../lib/gcc/avr/5.4.0/../../../../avr/lib/avrxmega7\libc.a(snprintf_p.o)
                              Bin/Commands.o (snprintf_P)
c:/program files/avr8-gnu-toolchain-win32_x86/bin/../lib/gcc/avr/5.4.0/../../../../avr/lib/avrxmega7\libc.a(sscanf_p.o)
                              Bin/Commands.o (sscanf_P)
c:/program files/avr8-gnu-toolchain-win32_x86/bin/../lib/gcc/avr/5.4.0/../../../../avr/lib/avrxmega7\libc.a(vfprintf_std.o)
                              c:/program files/avr8-gnu-toolchain-win32_x86/bin/../lib/gcc/avr/5.4.0/../../../../avr/lib/avrxmega7\libc.a(snprintf.o) (vfprintf)
c:/program files/avr8-gnu-toolchain-win32_x86/bin/../lib/gcc/avr/5.4.0/../../../../avr/lib/avrxmega7\libc.a(vfscanf_std.o)
                              c:/program files/avr8-gnu-toolchain-win32_x86/bin/../lib/gcc/avr/5.4.0/../../../../avr/lib/avrxmega7\libc.a(sscanf_p.o) (vfscanf)
c:/program files/avr8-gnu-toolchain-win32_x86/bin/../lib/gcc/avr/5.4.0/../../../../avr/lib/avrxmega7\libc.a(isspace.o)
                              c:/program files/avr8-gnu-toolchain-win32_x86/bin/../lib/gcc/avr/5.4.0/../../../../avr/lib/avrxmega7\libc.a(vfscanf_std.o) (isspace)
c:/program files/avr8-gnu-toolchain-win32_x86/bin/../lib/gcc/avr/5.4.0/../../../../avr/lib/avrxmega7\libc.a(strchr_P.o)
                              c:/program files/avr8-gnu-toolchain-win32_x86/bin/../lib/gcc/avr/5.4.0/../../../../avr/lib/avrxmega7\libc.a(vfscanf_std.o) (strchr_P)
c:/program files/avr8-gnu-toolchain-win32_x86/bin/../lib/gcc/avr/5.4.0/../../../../avr/lib/avrxmega7\libc.a(strnlen_P.o)
                              c:/program files/avr8-gnu-toolchain-win32_x86/bin/../lib/gcc/avr/5.4.0/../../../../avr/lib/avrxmega7\libc.a(vfprintf_std.o) (strnlen_P)
c:/program files/avr8-gnu-toolchain-win32_x86/bin/../lib/gcc/avr/5.4.0/../../../../avr/lib/avrxmega7\libc.a(strnlen.o)
                              c:/program files/avr8-gnu-toolchain-win32_x86/bin/../lib/gcc/avr/5.4.0/../../../../avr/lib/avrxmega7\libc.a(vfprintf_std.o) (strnlen)
c:/program files/avr8-gnu-toolchain-win32_x86/bin/../lib/gcc/avr/5.4.0/../../../../avr/lib/avrxmega7\libc.a(fgetc.o)
                              c:/program files/avr8-gnu-toolchain-win32_x86/bin/../lib/gcc/avr/5.4.0/../../../../avr/lib/avrxmega7\libc.a(vfscanf_std.o) (fgetc)
c:/program files/avr8-gnu-toolchain-win32_x86/bin/../lib/gcc/avr/5.4.0/../../../../avr/lib/avrxmega7\libc.a(fputc.o)
                              c:/program files/avr8-gnu-toolchain-win32_x86/bin/../lib/gcc/avr/5.4.0/../../../../avr/lib/avrxmega7\libc.a(vfprintf_std.o) (fputc)
c:/program files/avr8-gnu-toolchain-win32_x86/bin/../lib/gcc/avr/5.4.0/../../../../avr/lib/avrxmega7\libc.a(ungetc.o)
                              c:/program files/avr8-gnu-toolchain-win32_x86/bin/../lib/gcc/avr/5.4.0/../../../../avr/lib/avrxmega7\libc.a(vfscanf_std.o) (ungetc)
c:/program files/avr8-gnu-toolchain-win32_x86/bin/../lib/gcc/avr/5.4.0/../../../../avr/lib/avrxmega7\libc.a(ultoa_invert.o)
                              c:/program files/avr8-gnu-toolchain-win32_x86/bin/../lib/gcc/avr/5.4.0/../../../../avr/lib/avrxmega7\libc.a(vfprintf_std.o) (__ultoa_invert)
c:/program files/avr8-gnu-toolchain-win32_x86/bin/../lib/gcc/avr/5.4.0/../../../../avr/lib/avrxmega7\libc.a(cty_isfalse.o)
                              c:/program files/avr8-gnu-toolchain-win32_x86/bin/../lib/gcc/avr/5.4.0/../../../../avr/lib/avrxmega7\libc.a(isspace.o) (__ctype_isfalse)
c:/program files/avr8-gnu-toolchain-win32_x86/bin/../lib/gcc/avr/5.4.0/../../../../avr/lib/avrxmega7\libatxmega128a4u.a(eerd_byte.o)
                              Bin/EndpointStream_XMEGA.o (eeprom_read_byte)
c:/program files/avr8-gnu-toolchain-win32_x86/bin/../lib/gcc/avr/5.4.0/../../../../avr/lib/avrxmega7\libatxmega128a4u.a(eeupd_byte.o)
                              Bin/Settings.o (eeprom_update_byte)
c:/program files/avr8-gnu-toolchain-win32_x86/bin/../lib/gcc/avr/5.4.0/../../../../avr/lib/avrxmega7\libatxmega128a4u.a(eeupd_word.o)
                              Bin/Settings.o (eeprom_update_word)
c:/program files/avr8-gnu-toolchain-win32_x86/bin/../lib/gcc/avr/5.4.0/../../../../avr/lib/avrxmega7\libatxmega128a4u.a(eewr_byte.o)
                              c:/program files/avr8-gnu-toolchain-win32_x86/bin/../lib/gcc/avr/5.4.0/../../../../avr/lib/avrxmega7\libatxmega128a4u.a(eeupd_byte.o) (eeprom_write_r18)
c:/program files/avr8-gnu-toolchain-win32_x86/bin/../lib/gcc/avr/5.4.0/avrxmega7\libgcc.a(_divmodsi4.o)
                              c:/program files/avr8-gnu-toolchain-win32_x86/bin/../lib/gcc/avr/5.4.0/../../../../avr/lib/avrxmega7\libc.a(rand.o) (__divmodsi4)
c:/program files/avr8-gnu-toolchain-win32_x86/bin/../lib/gcc/avr/5.4.0/avrxmega7\libgcc.a(_negsi2.o)
                              c:/program files/avr8-gnu-toolchain-win32_x86/bin/../lib/gcc/avr/5.4.0/avrxmega7\libgcc.a(_divmodsi4.o) (__negsi2)
c:/program files/avr8-gnu-toolchain-win32_x86/bin/../lib/gcc/avr/5.4.0/avrxmega7\libgcc.a(_udivmodsi4.o)
                              c:/program files/avr8-gnu-toolchain-win32_x86/bin/../lib/gcc/avr/5.4.0/avrxmega7\libgcc.a(_divmodsi4.o) (__udivmodsi4)

Allocating common symbols
Common symbol       size              file

TrafficSource       0x1               Bin/Chameleon-Mini.o
USB_IsInitialized   0x1               Bin/USBTask.o
USB_EndpointTable   0x63              Bin/USBController_XMEGA.o
MyAFI               0x1               Bin/TITagitstandard.o
isr_func_CODEC_TIMER_LOADMOD_CCB_VECT
                    0x2               Bin/Chameleon-Mini.o
TerminalBuffer      0x200             Bin/Terminal.o
FrameInfo           0x9               Bin/TITagitstandard.o
isr_func_TCD0_CCC_vect
                    0x2               Bin/Chameleon-Mini.o
USB_Endpoint_SelectedFIFO
                    0x2               Bin/Endpoint_XMEGA.o
ActiveConfiguration
                    0x19              Bin/Configuration.o
USB_DeviceState     0x1               Bin/USBTask.o
USB_Device_ConfigurationNumber
                    0x1               Bin/DeviceStandardReq.o
ReaderSendBuffer    0x100             Bin/Chameleon-Mini.o
USB_Endpoint_SelectedHandle
                    0x2               Bin/Endpoint_XMEGA.o
isr_func_CODEC_DEMOD_IN_INT0_VECT
                    0x2               Bin/Chameleon-Mini.o
USB_Device_CurrentlySelfPowered
                    0x1               Bin/DeviceStandardReq.o
CodecBuffer         0x100             Bin/Codec.o
GlobalSettings      0x63              Bin/Settings.o
USB_Endpoint_SelectedEndpoint
                    0x1               Bin/Endpoint_XMEGA.o
loggedIn            0x1               Bin/EM4233.o
USB_ControlRequest  0x8               Bin/USBTask.o
USB_Endpoint_FIFOs  0x318             Bin/Endpoint_XMEGA.o
CodecBuffer2        0x100             Bin/Codec.o
NFCResponse         0x2               Bin/CommandLine.o
ReaderSendBitCount  0x2               Bin/Chameleon-Mini.o
USB_Device_RemoteWakeupEnabled
                    0x1               Bin/DeviceStandardReq.o
CurrentLogFunc      0x2               Bin/Log.o

Discarded input sections

 .data          0x00000000        0x0 c:/program files/avr8-gnu-toolchain-win32_x86/bin/../lib/gcc/avr/5.4.0/../../../../avr/lib/avrxmega7/crtatxmega128a4u.o
 .bss           0x00000000        0x0 c:/program files/avr8-gnu-toolchain-win32_x86/bin/../lib/gcc/avr/5.4.0/../../../../avr/lib/avrxmega7/crtatxmega128a4u.o
 .text          0x00000000        0x0 Bin/Chameleon-Mini.o
 .data          0x00000000        0x0 Bin/Chameleon-Mini.o
 .bss           0x00000000        0x0 Bin/Chameleon-Mini.o
 .text          0x00000000        0x0 Bin/LUFADescriptors.o
 .data          0x00000000        0x0 Bin/LUFADescriptors.o
 .bss           0x00000000        0x0 Bin/LUFADescriptors.o
 .text          0x00000000        0x0 Bin/System.o
 .data          0x00000000        0x0 Bin/System.o
 .bss           0x00000000        0x0 Bin/System.o
 .data          0x00000000        0x0 Bin/ISRSharing.o
 .bss           0x00000000        0x0 Bin/ISRSharing.o
 .text          0x00000000        0x0 Bin/Configuration.o
 .data          0x00000000        0x0 Bin/Configuration.o
 .bss           0x00000000        0x0 Bin/Configuration.o
 .text          0x00000000        0x0 Bin/Random.o
 .data          0x00000000        0x0 Bin/Random.o
 .bss           0x00000000        0x0 Bin/Random.o
 .text          0x00000000        0x0 Bin/Common.o
 .data          0x00000000        0x0 Bin/Common.o
 .bss           0x00000000        0x0 Bin/Common.o
 .text          0x00000000        0x0 Bin/Memory.o
 .data          0x00000000        0x0 Bin/Memory.o
 .data          0x00000000        0x0 Bin/MemoryAsm.o
 .bss           0x00000000        0x0 Bin/MemoryAsm.o
 .text          0x00000000        0x0 Bin/Button.o
 .data          0x00000000        0x0 Bin/Button.o
 .text          0x00000000        0x0 Bin/Log.o
 .text          0x00000000        0x0 Bin/Settings.o
 .data          0x00000000        0x0 Bin/Settings.o
 .bss           0x00000000        0x0 Bin/Settings.o
 .text.SettingsGetActiveById
                0x00000000        0x8 Bin/Settings.o
 .text          0x00000000        0x0 Bin/LED.o
 .data          0x00000000        0x0 Bin/LED.o
 .text          0x00000000        0x0 Bin/Map.o
 .data          0x00000000        0x0 Bin/Map.o
 .bss           0x00000000        0x0 Bin/Map.o
 .text          0x00000000        0x0 Bin/AntennaLevel.o
 .data          0x00000000        0x0 Bin/AntennaLevel.o
 .bss           0x00000000        0x0 Bin/AntennaLevel.o
 .text          0x00000000        0x0 Bin/Terminal.o
 .text          0x00000000        0x0 Bin/Commands.o
 .data          0x00000000        0x0 Bin/Commands.o
 .bss           0x00000000        0x0 Bin/Commands.o
 .text          0x00000000        0x0 Bin/XModem.o
 .data          0x00000000        0x0 Bin/XModem.o
 .text          0x00000000        0x0 Bin/CommandLine.o
 .data          0x00000000        0x0 Bin/CommandLine.o
 .text.CommandLineInit
                0x00000000        0xa Bin/CommandLine.o
 .text          0x00000000        0x0 Bin/Codec.o
 .text.CodecReaderFieldRestart
                0x00000000       0x2a Bin/Codec.o
 .text          0x00000000        0x0 Bin/ISO14443-2A.o
 .data          0x00000000        0x0 Bin/ISO14443-2A.o
 .text          0x00000000        0x0 Bin/Reader14443-2A.o
 .data          0x00000000        0x0 Bin/Reader14443-2A.o
 .text          0x00000000        0x0 Bin/SniffISO14443-2A.o
 .data          0x00000000        0x0 Bin/SniffISO14443-2A.o
 .data          0x00000000        0x0 Bin/Reader14443-ISR.o
 .bss           0x00000000        0x0 Bin/Reader14443-ISR.o
 .text          0x00000000        0x0 Bin/MifareUltralight.o
 .data          0x00000000        0x0 Bin/MifareUltralight.o
 .text          0x00000000        0x0 Bin/MifareClassic.o
 .data          0x00000000        0x0 Bin/MifareClassic.o
 .text          0x00000000        0x0 Bin/ISO14443-3A.o
 .data          0x00000000        0x0 Bin/ISO14443-3A.o
 .bss           0x00000000        0x0 Bin/ISO14443-3A.o
 .text          0x00000000        0x0 Bin/Crypto1.o
 .data          0x00000000        0x0 Bin/Crypto1.o
 .text.Crypto1GetState
                0x00000000       0x38 Bin/Crypto1.o
 .text.Crypto1FilterOutput
                0x00000000       0x38 Bin/Crypto1.o
 .text.Crypto1EncryptWithParity
                0x00000000      0x10a Bin/Crypto1.o
 .text.Crypto1ReaderAuthWithParity
                0x00000000      0x132 Bin/Crypto1.o
 .text          0x00000000        0x0 Bin/Reader14443A.o
 .data          0x00000000        0x0 Bin/Reader14443A.o
 .text          0x00000000        0x0 Bin/Sniff14443A.o
 .data          0x00000000        0x0 Bin/CryptoTDEA.o
 .bss           0x00000000        0x0 Bin/CryptoTDEA.o
 .text          0x00000000        0x0 Bin/NFC_Command.o
 .data          0x00000000        0x0 Bin/NFC_Command.o
 .text          0x00000000        0x0 Bin/NTAG215.o
 .data          0x00000000        0x0 Bin/NTAG215.o
 .text          0x00000000        0x0 Bin/ISO15693.o
 .data          0x00000000        0x0 Bin/ISO15693.o
 .text          0x00000000        0x0 Bin/Vicinity.o
 .data          0x00000000        0x0 Bin/Vicinity.o
 .text          0x00000000        0x0 Bin/Sl2s2002.o
 .data          0x00000000        0x0 Bin/Sl2s2002.o
 .text          0x00000000        0x0 Bin/TITagitstandard.o
 .data          0x00000000        0x0 Bin/TITagitstandard.o
 .text          0x00000000        0x0 Bin/ISO15693-A.o
 .data          0x00000000        0x0 Bin/ISO15693-A.o
 .bss           0x00000000        0x0 Bin/ISO15693-A.o
 .text          0x00000000        0x0 Bin/EM4233.o
 .data          0x00000000        0x0 Bin/EM4233.o
 .text          0x00000000        0x0 Bin/HIDParser.o
 .data          0x00000000        0x0 Bin/HIDParser.o
 .bss           0x00000000        0x0 Bin/HIDParser.o
 .text.USB_ProcessHIDReport
                0x00000000      0x6ba Bin/HIDParser.o
 .text.USB_GetHIDReportItemInfo
                0x00000000       0xbc Bin/HIDParser.o
 .text.USB_SetHIDReportItemInfo
                0x00000000       0xce Bin/HIDParser.o
 .text.USB_GetHIDReportSize
                0x00000000       0x56 Bin/HIDParser.o
 .debug_info    0x00000000      0x739 Bin/HIDParser.o
 .debug_abbrev  0x00000000      0x21a Bin/HIDParser.o
 .debug_loc     0x00000000      0xad9 Bin/HIDParser.o
 .debug_aranges
                0x00000000       0x38 Bin/HIDParser.o
 .debug_ranges  0x00000000       0xd0 Bin/HIDParser.o
 .debug_line    0x00000000      0x582 Bin/HIDParser.o
 .debug_str     0x00000000      0x71a Bin/HIDParser.o
 .comment       0x00000000       0x31 Bin/HIDParser.o
 .debug_frame   0x00000000      0x128 Bin/HIDParser.o
 .text          0x00000000        0x0 Bin/ConfigDescriptors.o
 .data          0x00000000        0x0 Bin/ConfigDescriptors.o
 .bss           0x00000000        0x0 Bin/ConfigDescriptors.o
 .text.USB_GetNextDescriptor
                0x00000000       0x3c Bin/ConfigDescriptors.o
 .text.USB_GetNextDescriptorOfType
                0x00000000       0x38 Bin/ConfigDescriptors.o
 .text.USB_GetNextDescriptorOfTypeBefore
                0x00000000       0x46 Bin/ConfigDescriptors.o
 .text.USB_GetNextDescriptorOfTypeAfter
                0x00000000       0x3e Bin/ConfigDescriptors.o
 .text.USB_GetNextDescriptorComp
                0x00000000       0x66 Bin/ConfigDescriptors.o
 .debug_info    0x00000000      0x5e5 Bin/ConfigDescriptors.o
 .debug_abbrev  0x00000000      0x220 Bin/ConfigDescriptors.o
 .debug_loc     0x00000000      0x59f Bin/ConfigDescriptors.o
 .debug_aranges
                0x00000000       0x40 Bin/ConfigDescriptors.o
 .debug_ranges  0x00000000       0x30 Bin/ConfigDescriptors.o
 .debug_line    0x00000000      0x277 Bin/ConfigDescriptors.o
 .debug_str     0x00000000      0x558 Bin/ConfigDescriptors.o
 .comment       0x00000000       0x31 Bin/ConfigDescriptors.o
 .debug_frame   0x00000000       0xfc Bin/ConfigDescriptors.o
 .text          0x00000000        0x0 Bin/DeviceStandardReq.o
 .data          0x00000000        0x0 Bin/DeviceStandardReq.o
 .bss           0x00000000        0x0 Bin/DeviceStandardReq.o
 .text          0x00000000        0x0 Bin/Events.o
 .data          0x00000000        0x0 Bin/Events.o
 .bss           0x00000000        0x0 Bin/Events.o
 .text          0x00000000        0x0 Bin/HostStandardReq.o
 .data          0x00000000        0x0 Bin/HostStandardReq.o
 .bss           0x00000000        0x0 Bin/HostStandardReq.o
 .debug_info    0x00000000       0x5d Bin/HostStandardReq.o
 .debug_abbrev  0x00000000       0x26 Bin/HostStandardReq.o
 .debug_aranges
                0x00000000       0x18 Bin/HostStandardReq.o
 .debug_line    0x00000000       0x1a Bin/HostStandardReq.o
 .debug_str     0x00000000      0x1ff Bin/HostStandardReq.o
 .comment       0x00000000       0x31 Bin/HostStandardReq.o
 .text          0x00000000        0x0 Bin/USBTask.o
 .data          0x00000000        0x0 Bin/USBTask.o
 .bss           0x00000000        0x0 Bin/USBTask.o
 .text          0x00000000        0x0 Bin/Device_XMEGA.o
 .data          0x00000000        0x0 Bin/Device_XMEGA.o
 .bss           0x00000000        0x0 Bin/Device_XMEGA.o
 .text.USB_Device_SendRemoteWakeup
                0x00000000        0xc Bin/Device_XMEGA.o
 .debug_info    0x00000000      0x670 Bin/Device_XMEGA.o
 .debug_abbrev  0x00000000      0x11e Bin/Device_XMEGA.o
 .debug_aranges
                0x00000000       0x20 Bin/Device_XMEGA.o
 .debug_ranges  0x00000000       0x10 Bin/Device_XMEGA.o
 .debug_line    0x00000000      0x142 Bin/Device_XMEGA.o
 .debug_str     0x00000000      0x645 Bin/Device_XMEGA.o
 .comment       0x00000000       0x31 Bin/Device_XMEGA.o
 .debug_frame   0x00000000       0x24 Bin/Device_XMEGA.o
 .text          0x00000000        0x0 Bin/EndpointStream_XMEGA.o
 .data          0x00000000        0x0 Bin/EndpointStream_XMEGA.o
 .bss           0x00000000        0x0 Bin/EndpointStream_XMEGA.o
 .text.Endpoint_Discard_Stream
                0x00000000       0x92 Bin/EndpointStream_XMEGA.o
 .text.Endpoint_Null_Stream
                0x00000000       0x8e Bin/EndpointStream_XMEGA.o
 .text.Endpoint_Write_Stream_BE
                0x00000000       0xae Bin/EndpointStream_XMEGA.o
 .text.Endpoint_Read_Stream_LE
                0x00000000       0xa4 Bin/EndpointStream_XMEGA.o
 .text.Endpoint_Read_Stream_BE
                0x00000000       0xae Bin/EndpointStream_XMEGA.o
 .text.Endpoint_Write_PStream_LE
                0x00000000       0xa8 Bin/EndpointStream_XMEGA.o
 .text.Endpoint_Write_PStream_BE
                0x00000000       0xb0 Bin/EndpointStream_XMEGA.o
 .text.Endpoint_Write_EStream_LE
                0x00000000       0xaa Bin/EndpointStream_XMEGA.o
 .text.Endpoint_Write_EStream_BE
                0x00000000       0xb2 Bin/EndpointStream_XMEGA.o
 .text.Endpoint_Read_EStream_LE
                0x00000000       0xac Bin/EndpointStream_XMEGA.o
 .text.Endpoint_Read_EStream_BE
                0x00000000       0xb4 Bin/EndpointStream_XMEGA.o
 .text.Endpoint_Write_Control_Stream_BE
                0x00000000      0x112 Bin/EndpointStream_XMEGA.o
 .text.Endpoint_Read_Control_Stream_LE
                0x00000000       0xb8 Bin/EndpointStream_XMEGA.o
 .text.Endpoint_Read_Control_Stream_BE
                0x00000000       0xb4 Bin/EndpointStream_XMEGA.o
 .text.Endpoint_Write_Control_PStream_BE
                0x00000000      0x112 Bin/EndpointStream_XMEGA.o
 .text.Endpoint_Write_Control_EStream_LE
                0x00000000      0x12c Bin/EndpointStream_XMEGA.o
 .text.Endpoint_Write_Control_EStream_BE
                0x00000000      0x130 Bin/EndpointStream_XMEGA.o
 .text.Endpoint_Read_Control_EStream_LE
                0x00000000       0xbe Bin/EndpointStream_XMEGA.o
 .text.Endpoint_Read_Control_EStream_BE
                0x00000000       0xb8 Bin/EndpointStream_XMEGA.o
 .text          0x00000000        0x0 Bin/Endpoint_XMEGA.o
 .data          0x00000000        0x0 Bin/Endpoint_XMEGA.o
 .bss           0x00000000        0x0 Bin/Endpoint_XMEGA.o
 .text          0x00000000        0x0 Bin/Host_XMEGA.o
 .data          0x00000000        0x0 Bin/Host_XMEGA.o
 .bss           0x00000000        0x0 Bin/Host_XMEGA.o
 .debug_info    0x00000000       0x5d Bin/Host_XMEGA.o
 .debug_abbrev  0x00000000       0x26 Bin/Host_XMEGA.o
 .debug_aranges
                0x00000000       0x18 Bin/Host_XMEGA.o
 .debug_line    0x00000000       0x1a Bin/Host_XMEGA.o
 .debug_str     0x00000000      0x200 Bin/Host_XMEGA.o
 .comment       0x00000000       0x31 Bin/Host_XMEGA.o
 .text          0x00000000        0x0 Bin/PipeStream_XMEGA.o
 .data          0x00000000        0x0 Bin/PipeStream_XMEGA.o
 .bss           0x00000000        0x0 Bin/PipeStream_XMEGA.o
 .debug_info    0x00000000       0x5d Bin/PipeStream_XMEGA.o
 .debug_abbrev  0x00000000       0x26 Bin/PipeStream_XMEGA.o
 .debug_aranges
                0x00000000       0x18 Bin/PipeStream_XMEGA.o
 .debug_line    0x00000000       0x1a Bin/PipeStream_XMEGA.o
 .debug_str     0x00000000      0x206 Bin/PipeStream_XMEGA.o
 .comment       0x00000000       0x31 Bin/PipeStream_XMEGA.o
 .text          0x00000000        0x0 Bin/Pipe_XMEGA.o
 .data          0x00000000        0x0 Bin/Pipe_XMEGA.o
 .bss           0x00000000        0x0 Bin/Pipe_XMEGA.o
 .debug_info    0x00000000       0x5d Bin/Pipe_XMEGA.o
 .debug_abbrev  0x00000000       0x26 Bin/Pipe_XMEGA.o
 .debug_aranges
                0x00000000       0x18 Bin/Pipe_XMEGA.o
 .debug_line    0x00000000       0x1a Bin/Pipe_XMEGA.o
 .debug_str     0x00000000      0x200 Bin/Pipe_XMEGA.o
 .comment       0x00000000       0x31 Bin/Pipe_XMEGA.o
 .text          0x00000000        0x0 Bin/USBController_XMEGA.o
 .data          0x00000000        0x0 Bin/USBController_XMEGA.o
 .bss           0x00000000        0x0 Bin/USBController_XMEGA.o
 .text          0x00000000        0x0 Bin/USBInterrupt_XMEGA.o
 .data          0x00000000        0x0 Bin/USBInterrupt_XMEGA.o
 .bss           0x00000000        0x0 Bin/USBInterrupt_XMEGA.o
 .text          0x00000000        0x0 Bin/AudioClassDevice.o
 .data          0x00000000        0x0 Bin/AudioClassDevice.o
 .bss           0x00000000        0x0 Bin/AudioClassDevice.o
 .text.Audio_Device_ConfigureEndpoints
                0x00000000       0x32 Bin/AudioClassDevice.o
 .text.Audio_Device_Event_Stub
                0x00000000        0x2 Bin/AudioClassDevice.o
 .text.Audio_Device_ProcessControlRequest
                0x00000000      0x28c Bin/AudioClassDevice.o
 .debug_info    0x00000000      0xa30 Bin/AudioClassDevice.o
 .debug_abbrev  0x00000000      0x23e Bin/AudioClassDevice.o
 .debug_loc     0x00000000      0x37c Bin/AudioClassDevice.o
 .debug_aranges
                0x00000000       0x30 Bin/AudioClassDevice.o
 .debug_ranges  0x00000000       0x20 Bin/AudioClassDevice.o
 .debug_line    0x00000000      0x43b Bin/AudioClassDevice.o
 .debug_str     0x00000000      0x82c Bin/AudioClassDevice.o
 .comment       0x00000000       0x31 Bin/AudioClassDevice.o
 .debug_frame   0x00000000       0xa8 Bin/AudioClassDevice.o
 .text          0x00000000        0x0 Bin/CDCClassDevice.o
 .data          0x00000000        0x0 Bin/CDCClassDevice.o
 .bss           0x00000000        0x0 Bin/CDCClassDevice.o
 .text.CDC_Device_SendString_P
                0x00000000       0x50 Bin/CDCClassDevice.o
 .text.CDC_Device_SendData_P
                0x00000000       0x4c Bin/CDCClassDevice.o
 .text.CDC_Device_putchar
                0x00000000       0x22 Bin/CDCClassDevice.o
 .text.CDC_Device_BytesReceived
                0x00000000       0x94 Bin/CDCClassDevice.o
 .text.CDC_Device_getchar
                0x00000000       0x14 Bin/CDCClassDevice.o
 .text.CDC_Device_getchar_Blocking
                0x00000000       0x32 Bin/CDCClassDevice.o
 .rodata        0x00000000        0x8 Bin/CDCClassDevice.o
 .text.CDC_Device_SendControlLineStateChange
                0x00000000       0x7a Bin/CDCClassDevice.o
 .text.CDC_Device_CreateStream
                0x00000000       0x26 Bin/CDCClassDevice.o
 .text.CDC_Device_CreateBlockingStream
                0x00000000       0x26 Bin/CDCClassDevice.o
 .text          0x00000000        0x0 Bin/HIDClassDevice.o
 .data          0x00000000        0x0 Bin/HIDClassDevice.o
 .bss           0x00000000        0x0 Bin/HIDClassDevice.o
 .text.HID_Device_ProcessControlRequest
                0x00000000      0x22a Bin/HIDClassDevice.o
 .text.HID_Device_ConfigureEndpoints
                0x00000000       0x28 Bin/HIDClassDevice.o
 .text.HID_Device_USBTask
                0x00000000      0x196 Bin/HIDClassDevice.o
 .debug_info    0x00000000      0xe85 Bin/HIDClassDevice.o
 .debug_abbrev  0x00000000      0x261 Bin/HIDClassDevice.o
 .debug_loc     0x00000000      0x3c9 Bin/HIDClassDevice.o
 .debug_aranges
                0x00000000       0x30 Bin/HIDClassDevice.o
 .debug_ranges  0x00000000       0x20 Bin/HIDClassDevice.o
 .debug_line    0x00000000      0x517 Bin/HIDClassDevice.o
 .debug_str     0x00000000      0xb95 Bin/HIDClassDevice.o
 .comment       0x00000000       0x31 Bin/HIDClassDevice.o
 .debug_frame   0x00000000       0xe4 Bin/HIDClassDevice.o
 .text          0x00000000        0x0 Bin/MassStorageClassDevice.o
 .data          0x00000000        0x0 Bin/MassStorageClassDevice.o
 .bss           0x00000000        0x0 Bin/MassStorageClassDevice.o
 .text.MS_Device_ProcessControlRequest
                0x00000000       0x70 Bin/MassStorageClassDevice.o
 .text.MS_Device_ConfigureEndpoints
                0x00000000       0x3e Bin/MassStorageClassDevice.o
 .text.MS_Device_USBTask
                0x00000000      0x268 Bin/MassStorageClassDevice.o
 .debug_info    0x00000000      0xa42 Bin/MassStorageClassDevice.o
 .debug_abbrev  0x00000000      0x2b0 Bin/MassStorageClassDevice.o
 .debug_loc     0x00000000      0x260 Bin/MassStorageClassDevice.o
 .debug_aranges
                0x00000000       0x30 Bin/MassStorageClassDevice.o
 .debug_ranges  0x00000000       0x20 Bin/MassStorageClassDevice.o
 .debug_line    0x00000000      0x4c1 Bin/MassStorageClassDevice.o
 .debug_str     0x00000000      0x97f Bin/MassStorageClassDevice.o
 .comment       0x00000000       0x31 Bin/MassStorageClassDevice.o
 .debug_frame   0x00000000       0x8c Bin/MassStorageClassDevice.o
 .text          0x00000000        0x0 Bin/MIDIClassDevice.o
 .data          0x00000000        0x0 Bin/MIDIClassDevice.o
 .bss           0x00000000        0x0 Bin/MIDIClassDevice.o
 .text.MIDI_Device_ConfigureEndpoints
                0x00000000       0x32 Bin/MIDIClassDevice.o
 .text.MIDI_Device_SendEventPacket
                0x00000000       0x52 Bin/MIDIClassDevice.o
 .text.MIDI_Device_Flush
                0x00000000       0x50 Bin/MIDIClassDevice.o
 .text.MIDI_Device_USBTask
                0x00000000       0x2c Bin/MIDIClassDevice.o
 .text.MIDI_Device_ReceiveEventPacket
                0x00000000       0x72 Bin/MIDIClassDevice.o
 .debug_info    0x00000000      0x777 Bin/MIDIClassDevice.o
 .debug_abbrev  0x00000000      0x228 Bin/MIDIClassDevice.o
 .debug_loc     0x00000000      0x329 Bin/MIDIClassDevice.o
 .debug_aranges
                0x00000000       0x40 Bin/MIDIClassDevice.o
 .debug_ranges  0x00000000       0x30 Bin/MIDIClassDevice.o
 .debug_line    0x00000000      0x3c8 Bin/MIDIClassDevice.o
 .debug_str     0x00000000      0x7ed Bin/MIDIClassDevice.o
 .comment       0x00000000       0x31 Bin/MIDIClassDevice.o
 .debug_frame   0x00000000       0x98 Bin/MIDIClassDevice.o
 .text          0x00000000        0x0 Bin/PrinterClassDevice.o
 .data          0x00000000        0x0 Bin/PrinterClassDevice.o
 .bss           0x00000000        0x0 Bin/PrinterClassDevice.o
 .text.PRNT_Device_ConfigureEndpoints
                0x00000000       0x38 Bin/PrinterClassDevice.o
 .text.PRNT_Device_SendString
                0x00000000       0x3c Bin/PrinterClassDevice.o
 .text.PRNT_Device_SendData
                0x00000000       0x3c Bin/PrinterClassDevice.o
 .text.PRNT_Device_SendByte
                0x00000000       0x4a Bin/PrinterClassDevice.o
 .text.PRNT_Device_putchar
                0x00000000       0x22 Bin/PrinterClassDevice.o
 .text.PRNT_Device_Flush
                0x00000000       0x70 Bin/PrinterClassDevice.o
 .text.PRNT_Device_USBTask
                0x00000000       0xc4 Bin/PrinterClassDevice.o
 .text.PRNT_Device_BytesReceived
                0x00000000       0x84 Bin/PrinterClassDevice.o
 .text.PRNT_Device_ReceiveByte
                0x00000000       0x9c Bin/PrinterClassDevice.o
 .text.PRNT_Device_getchar
                0x00000000       0x14 Bin/PrinterClassDevice.o
 .text.PRNT_Device_getchar_Blocking
                0x00000000       0x32 Bin/PrinterClassDevice.o
 .text.PRNT_Device_CreateStream
                0x00000000       0x26 Bin/PrinterClassDevice.o
 .text.PRNT_Device_CreateBlockingStream
                0x00000000       0x26 Bin/PrinterClassDevice.o
 .text.PRNT_Device_Event_Stub
                0x00000000        0x2 Bin/PrinterClassDevice.o
 .text.PRNT_Device_ProcessControlRequest
                0x00000000       0xf0 Bin/PrinterClassDevice.o
 .debug_info    0x00000000      0xdc2 Bin/PrinterClassDevice.o
 .debug_abbrev  0x00000000      0x346 Bin/PrinterClassDevice.o
 .debug_loc     0x00000000      0x867 Bin/PrinterClassDevice.o
 .debug_aranges
                0x00000000       0x90 Bin/PrinterClassDevice.o
 .debug_ranges  0x00000000       0x80 Bin/PrinterClassDevice.o
 .debug_line    0x00000000      0x721 Bin/PrinterClassDevice.o
 .debug_str     0x00000000      0xaaf Bin/PrinterClassDevice.o
 .comment       0x00000000       0x31 Bin/PrinterClassDevice.o
 .debug_frame   0x00000000      0x188 Bin/PrinterClassDevice.o
 .text          0x00000000        0x0 Bin/RNDISClassDevice.o
 .data          0x00000000        0x0 Bin/RNDISClassDevice.o
 .bss           0x00000000        0x0 Bin/RNDISClassDevice.o
 .text.RNDIS_Device_ProcessControlRequest
                0x00000000      0x4f0 Bin/RNDISClassDevice.o
 .text.RNDIS_Device_ConfigureEndpoints
                0x00000000       0x64 Bin/RNDISClassDevice.o
 .rodata        0x00000000        0x8 Bin/RNDISClassDevice.o
 .text.RNDIS_Device_USBTask
                0x00000000       0x6e Bin/RNDISClassDevice.o
 .text.RNDIS_Device_IsPacketReceived
                0x00000000       0x1e Bin/RNDISClassDevice.o
 .text.RNDIS_Device_ReadPacket
                0x00000000       0x9a Bin/RNDISClassDevice.o
 .text.RNDIS_Device_SendPacket
                0x00000000       0xc0 Bin/RNDISClassDevice.o
 .progmem.data  0x00000000       0x6c Bin/RNDISClassDevice.o
 .debug_info    0x00000000     0x125d Bin/RNDISClassDevice.o
 .debug_abbrev  0x00000000      0x346 Bin/RNDISClassDevice.o
 .debug_loc     0x00000000      0xdcd Bin/RNDISClassDevice.o
 .debug_aranges
                0x00000000       0x48 Bin/RNDISClassDevice.o
 .debug_ranges  0x00000000       0x88 Bin/RNDISClassDevice.o
 .debug_line    0x00000000      0x65f Bin/RNDISClassDevice.o
 .debug_str     0x00000000      0xee7 Bin/RNDISClassDevice.o
 .comment       0x00000000       0x31 Bin/RNDISClassDevice.o
 .debug_frame   0x00000000      0x10c Bin/RNDISClassDevice.o
 .text          0x00000000        0x0 Bin/AndroidAccessoryClassHost.o
 .data          0x00000000        0x0 Bin/AndroidAccessoryClassHost.o
 .bss           0x00000000        0x0 Bin/AndroidAccessoryClassHost.o
 .debug_info    0x00000000       0x5d Bin/AndroidAccessoryClassHost.o
 .debug_abbrev  0x00000000       0x26 Bin/AndroidAccessoryClassHost.o
 .debug_aranges
                0x00000000       0x18 Bin/AndroidAccessoryClassHost.o
 .debug_line    0x00000000       0x1a Bin/AndroidAccessoryClassHost.o
 .debug_str     0x00000000      0x20f Bin/AndroidAccessoryClassHost.o
 .comment       0x00000000       0x31 Bin/AndroidAccessoryClassHost.o
 .text          0x00000000        0x0 Bin/AudioClassHost.o
 .data          0x00000000        0x0 Bin/AudioClassHost.o
 .bss           0x00000000        0x0 Bin/AudioClassHost.o
 .debug_info    0x00000000       0x5d Bin/AudioClassHost.o
 .debug_abbrev  0x00000000       0x26 Bin/AudioClassHost.o
 .debug_aranges
                0x00000000       0x18 Bin/AudioClassHost.o
 .debug_line    0x00000000       0x1a Bin/AudioClassHost.o
 .debug_str     0x00000000      0x204 Bin/AudioClassHost.o
 .comment       0x00000000       0x31 Bin/AudioClassHost.o
 .text          0x00000000        0x0 Bin/CDCClassHost.o
 .data          0x00000000        0x0 Bin/CDCClassHost.o
 .bss           0x00000000        0x0 Bin/CDCClassHost.o
 .debug_info    0x00000000       0x5d Bin/CDCClassHost.o
 .debug_abbrev  0x00000000       0x26 Bin/CDCClassHost.o
 .debug_aranges
                0x00000000       0x18 Bin/CDCClassHost.o
 .debug_line    0x00000000       0x1a Bin/CDCClassHost.o
 .debug_str     0x00000000      0x202 Bin/CDCClassHost.o
 .comment       0x00000000       0x31 Bin/CDCClassHost.o
 .text          0x00000000        0x0 Bin/HIDClassHost.o
 .data          0x00000000        0x0 Bin/HIDClassHost.o
 .bss           0x00000000        0x0 Bin/HIDClassHost.o
 .debug_info    0x00000000       0x5d Bin/HIDClassHost.o
 .debug_abbrev  0x00000000       0x26 Bin/HIDClassHost.o
 .debug_aranges
                0x00000000       0x18 Bin/HIDClassHost.o
 .debug_line    0x00000000       0x1a Bin/HIDClassHost.o
 .debug_str     0x00000000      0x202 Bin/HIDClassHost.o
 .comment       0x00000000       0x31 Bin/HIDClassHost.o
 .text          0x00000000        0x0 Bin/MassStorageClassHost.o
 .data          0x00000000        0x0 Bin/MassStorageClassHost.o
 .bss           0x00000000        0x0 Bin/MassStorageClassHost.o
 .debug_info    0x00000000       0x5d Bin/MassStorageClassHost.o
 .debug_abbrev  0x00000000       0x26 Bin/MassStorageClassHost.o
 .debug_aranges
                0x00000000       0x18 Bin/MassStorageClassHost.o
 .debug_line    0x00000000       0x1a Bin/MassStorageClassHost.o
 .debug_str     0x00000000      0x20a Bin/MassStorageClassHost.o
 .comment       0x00000000       0x31 Bin/MassStorageClassHost.o
 .text          0x00000000        0x0 Bin/MIDIClassHost.o
 .data          0x00000000        0x0 Bin/MIDIClassHost.o
 .bss           0x00000000        0x0 Bin/MIDIClassHost.o
 .debug_info    0x00000000       0x5d Bin/MIDIClassHost.o
 .debug_abbrev  0x00000000       0x26 Bin/MIDIClassHost.o
 .debug_aranges
                0x00000000       0x18 Bin/MIDIClassHost.o
 .debug_line    0x00000000       0x1a Bin/MIDIClassHost.o
 .debug_str     0x00000000      0x203 Bin/MIDIClassHost.o
 .comment       0x00000000       0x31 Bin/MIDIClassHost.o
 .text          0x00000000        0x0 Bin/PrinterClassHost.o
 .data          0x00000000        0x0 Bin/PrinterClassHost.o
 .bss           0x00000000        0x0 Bin/PrinterClassHost.o
 .debug_info    0x00000000       0x5d Bin/PrinterClassHost.o
 .debug_abbrev  0x00000000       0x26 Bin/PrinterClassHost.o
 .debug_aranges
                0x00000000       0x18 Bin/PrinterClassHost.o
 .debug_line    0x00000000       0x1a Bin/PrinterClassHost.o
 .debug_str     0x00000000      0x206 Bin/PrinterClassHost.o
 .comment       0x00000000       0x31 Bin/PrinterClassHost.o
 .text          0x00000000        0x0 Bin/RNDISClassHost.o
 .data          0x00000000        0x0 Bin/RNDISClassHost.o
 .bss           0x00000000        0x0 Bin/RNDISClassHost.o
 .debug_info    0x00000000       0x5d Bin/RNDISClassHost.o
 .debug_abbrev  0x00000000       0x26 Bin/RNDISClassHost.o
 .debug_aranges
                0x00000000       0x18 Bin/RNDISClassHost.o
 .debug_line    0x00000000       0x1a Bin/RNDISClassHost.o
 .debug_str     0x00000000      0x204 Bin/RNDISClassHost.o
 .comment       0x00000000       0x31 Bin/RNDISClassHost.o
 .text          0x00000000        0x0 Bin/StillImageClassHost.o
 .data          0x00000000        0x0 Bin/StillImageClassHost.o
 .bss           0x00000000        0x0 Bin/StillImageClassHost.o
 .debug_info    0x00000000       0x5d Bin/StillImageClassHost.o
 .debug_abbrev  0x00000000       0x26 Bin/StillImageClassHost.o
 .debug_aranges
                0x00000000       0x18 Bin/StillImageClassHost.o
 .debug_line    0x00000000       0x1a Bin/StillImageClassHost.o
 .debug_str     0x00000000      0x209 Bin/StillImageClassHost.o
 .comment       0x00000000       0x31 Bin/StillImageClassHost.o
 .text          0x00000000        0x0 c:/program files/avr8-gnu-toolchain-win32_x86/bin/../lib/gcc/avr/5.4.0/../../../../avr/lib/avrxmega7\libm.a(ceil.o)
 .data          0x00000000        0x0 c:/program files/avr8-gnu-toolchain-win32_x86/bin/../lib/gcc/avr/5.4.0/../../../../avr/lib/avrxmega7\libm.a(ceil.o)
 .bss           0x00000000        0x0 c:/program files/avr8-gnu-toolchain-win32_x86/bin/../lib/gcc/avr/5.4.0/../../../../avr/lib/avrxmega7\libm.a(ceil.o)
 .text          0x00000000        0x0 c:/program files/avr8-gnu-toolchain-win32_x86/bin/../lib/gcc/avr/5.4.0/../../../../avr/lib/avrxmega7\libm.a(divsf3.o)
 .data          0x00000000        0x0 c:/program files/avr8-gnu-toolchain-win32_x86/bin/../lib/gcc/avr/5.4.0/../../../../avr/lib/avrxmega7\libm.a(divsf3.o)
 .bss           0x00000000        0x0 c:/program files/avr8-gnu-toolchain-win32_x86/bin/../lib/gcc/avr/5.4.0/../../../../avr/lib/avrxmega7\libm.a(divsf3.o)
 .text          0x00000000        0x0 c:/program files/avr8-gnu-toolchain-win32_x86/bin/../lib/gcc/avr/5.4.0/../../../../avr/lib/avrxmega7\libm.a(divsf3x.o)
 .data          0x00000000        0x0 c:/program files/avr8-gnu-toolchain-win32_x86/bin/../lib/gcc/avr/5.4.0/../../../../avr/lib/avrxmega7\libm.a(divsf3x.o)
 .bss           0x00000000        0x0 c:/program files/avr8-gnu-toolchain-win32_x86/bin/../lib/gcc/avr/5.4.0/../../../../avr/lib/avrxmega7\libm.a(divsf3x.o)
 .text          0x00000000        0x0 c:/program files/avr8-gnu-toolchain-win32_x86/bin/../lib/gcc/avr/5.4.0/../../../../avr/lib/avrxmega7\libm.a(fixunssfsi.o)
 .data          0x00000000        0x0 c:/program files/avr8-gnu-toolchain-win32_x86/bin/../lib/gcc/avr/5.4.0/../../../../avr/lib/avrxmega7\libm.a(fixunssfsi.o)
 .bss           0x00000000        0x0 c:/program files/avr8-gnu-toolchain-win32_x86/bin/../lib/gcc/avr/5.4.0/../../../../avr/lib/avrxmega7\libm.a(fixunssfsi.o)
 .text          0x00000000        0x0 c:/program files/avr8-gnu-toolchain-win32_x86/bin/../lib/gcc/avr/5.4.0/../../../../avr/lib/avrxmega7\libm.a(floatsisf.o)
 .data          0x00000000        0x0 c:/program files/avr8-gnu-toolchain-win32_x86/bin/../lib/gcc/avr/5.4.0/../../../../avr/lib/avrxmega7\libm.a(floatsisf.o)
 .bss           0x00000000        0x0 c:/program files/avr8-gnu-toolchain-win32_x86/bin/../lib/gcc/avr/5.4.0/../../../../avr/lib/avrxmega7\libm.a(floatsisf.o)
 .text          0x00000000        0x0 c:/program files/avr8-gnu-toolchain-win32_x86/bin/../lib/gcc/avr/5.4.0/../../../../avr/lib/avrxmega7\libm.a(fp_inf.o)
 .data          0x00000000        0x0 c:/program files/avr8-gnu-toolchain-win32_x86/bin/../lib/gcc/avr/5.4.0/../../../../avr/lib/avrxmega7\libm.a(fp_inf.o)
 .bss           0x00000000        0x0 c:/program files/avr8-gnu-toolchain-win32_x86/bin/../lib/gcc/avr/5.4.0/../../../../avr/lib/avrxmega7\libm.a(fp_inf.o)
 .text          0x00000000        0x0 c:/program files/avr8-gnu-toolchain-win32_x86/bin/../lib/gcc/avr/5.4.0/../../../../avr/lib/avrxmega7\libm.a(fp_mintl.o)
 .data          0x00000000        0x0 c:/program files/avr8-gnu-toolchain-win32_x86/bin/../lib/gcc/avr/5.4.0/../../../../avr/lib/avrxmega7\libm.a(fp_mintl.o)
 .bss           0x00000000        0x0 c:/program files/avr8-gnu-toolchain-win32_x86/bin/../lib/gcc/avr/5.4.0/../../../../avr/lib/avrxmega7\libm.a(fp_mintl.o)
 .text          0x00000000        0x0 c:/program files/avr8-gnu-toolchain-win32_x86/bin/../lib/gcc/avr/5.4.0/../../../../avr/lib/avrxmega7\libm.a(fp_mpack.o)
 .data          0x00000000        0x0 c:/program files/avr8-gnu-toolchain-win32_x86/bin/../lib/gcc/avr/5.4.0/../../../../avr/lib/avrxmega7\libm.a(fp_mpack.o)
 .bss           0x00000000        0x0 c:/program files/avr8-gnu-toolchain-win32_x86/bin/../lib/gcc/avr/5.4.0/../../../../avr/lib/avrxmega7\libm.a(fp_mpack.o)
 .text          0x00000000        0x0 c:/program files/avr8-gnu-toolchain-win32_x86/bin/../lib/gcc/avr/5.4.0/../../../../avr/lib/avrxmega7\libm.a(fp_nan.o)
 .data          0x00000000        0x0 c:/program files/avr8-gnu-toolchain-win32_x86/bin/../lib/gcc/avr/5.4.0/../../../../avr/lib/avrxmega7\libm.a(fp_nan.o)
 .bss           0x00000000        0x0 c:/program files/avr8-gnu-toolchain-win32_x86/bin/../lib/gcc/avr/5.4.0/../../../../avr/lib/avrxmega7\libm.a(fp_nan.o)
 .text          0x00000000        0x0 c:/program files/avr8-gnu-toolchain-win32_x86/bin/../lib/gcc/avr/5.4.0/../../../../avr/lib/avrxmega7\libm.a(fp_pscA.o)
 .data          0x00000000        0x0 c:/program files/avr8-gnu-toolchain-win32_x86/bin/../lib/gcc/avr/5.4.0/../../../../avr/lib/avrxmega7\libm.a(fp_pscA.o)
 .bss           0x00000000        0x0 c:/program files/avr8-gnu-toolchain-win32_x86/bin/../lib/gcc/avr/5.4.0/../../../../avr/lib/avrxmega7\libm.a(fp_pscA.o)
 .text          0x00000000        0x0 c:/program files/avr8-gnu-toolchain-win32_x86/bin/../lib/gcc/avr/5.4.0/../../../../avr/lib/avrxmega7\libm.a(fp_pscB.o)
 .data          0x00000000        0x0 c:/program files/avr8-gnu-toolchain-win32_x86/bin/../lib/gcc/avr/5.4.0/../../../../avr/lib/avrxmega7\libm.a(fp_pscB.o)
 .bss           0x00000000        0x0 c:/program files/avr8-gnu-toolchain-win32_x86/bin/../lib/gcc/avr/5.4.0/../../../../avr/lib/avrxmega7\libm.a(fp_pscB.o)
 .text          0x00000000        0x0 c:/program files/avr8-gnu-toolchain-win32_x86/bin/../lib/gcc/avr/5.4.0/../../../../avr/lib/avrxmega7\libm.a(fp_round.o)
 .data          0x00000000        0x0 c:/program files/avr8-gnu-toolchain-win32_x86/bin/../lib/gcc/avr/5.4.0/../../../../avr/lib/avrxmega7\libm.a(fp_round.o)
 .bss           0x00000000        0x0 c:/program files/avr8-gnu-toolchain-win32_x86/bin/../lib/gcc/avr/5.4.0/../../../../avr/lib/avrxmega7\libm.a(fp_round.o)
 .text          0x00000000        0x0 c:/program files/avr8-gnu-toolchain-win32_x86/bin/../lib/gcc/avr/5.4.0/../../../../avr/lib/avrxmega7\libm.a(fp_split3.o)
 .data          0x00000000        0x0 c:/program files/avr8-gnu-toolchain-win32_x86/bin/../lib/gcc/avr/5.4.0/../../../../avr/lib/avrxmega7\libm.a(fp_split3.o)
 .bss           0x00000000        0x0 c:/program files/avr8-gnu-toolchain-win32_x86/bin/../lib/gcc/avr/5.4.0/../../../../avr/lib/avrxmega7\libm.a(fp_split3.o)
 .text          0x00000000        0x0 c:/program files/avr8-gnu-toolchain-win32_x86/bin/../lib/gcc/avr/5.4.0/../../../../avr/lib/avrxmega7\libm.a(fp_trunc.o)
 .data          0x00000000        0x0 c:/program files/avr8-gnu-toolchain-win32_x86/bin/../lib/gcc/avr/5.4.0/../../../../avr/lib/avrxmega7\libm.a(fp_trunc.o)
 .bss           0x00000000        0x0 c:/program files/avr8-gnu-toolchain-win32_x86/bin/../lib/gcc/avr/5.4.0/../../../../avr/lib/avrxmega7\libm.a(fp_trunc.o)
 .text          0x00000000        0x0 c:/program files/avr8-gnu-toolchain-win32_x86/bin/../lib/gcc/avr/5.4.0/../../../../avr/lib/avrxmega7\libm.a(fp_zero.o)
 .data          0x00000000        0x0 c:/program files/avr8-gnu-toolchain-win32_x86/bin/../lib/gcc/avr/5.4.0/../../../../avr/lib/avrxmega7\libm.a(fp_zero.o)
 .bss           0x00000000        0x0 c:/program files/avr8-gnu-toolchain-win32_x86/bin/../lib/gcc/avr/5.4.0/../../../../avr/lib/avrxmega7\libm.a(fp_zero.o)
 .text          0x00000000        0x0 c:/program files/avr8-gnu-toolchain-win32_x86/bin/../lib/gcc/avr/5.4.0/../../../../avr/lib/avrxmega7\libm.a(gesf2.o)
 .data          0x00000000        0x0 c:/program files/avr8-gnu-toolchain-win32_x86/bin/../lib/gcc/avr/5.4.0/../../../../avr/lib/avrxmega7\libm.a(gesf2.o)
 .bss           0x00000000        0x0 c:/program files/avr8-gnu-toolchain-win32_x86/bin/../lib/gcc/avr/5.4.0/../../../../avr/lib/avrxmega7\libm.a(gesf2.o)
 .text          0x00000000        0x0 c:/program files/avr8-gnu-toolchain-win32_x86/bin/../lib/gcc/avr/5.4.0/../../../../avr/lib/avrxmega7\libm.a(fp_cmp.o)
 .data          0x00000000        0x0 c:/program files/avr8-gnu-toolchain-win32_x86/bin/../lib/gcc/avr/5.4.0/../../../../avr/lib/avrxmega7\libm.a(fp_cmp.o)
 .bss           0x00000000        0x0 c:/program files/avr8-gnu-toolchain-win32_x86/bin/../lib/gcc/avr/5.4.0/../../../../avr/lib/avrxmega7\libm.a(fp_cmp.o)
 .text          0x00000000        0x0 c:/program files/avr8-gnu-toolchain-win32_x86/bin/../lib/gcc/avr/5.4.0/avrxmega7\libgcc.a(_udivmodqi4.o)
 .data          0x00000000        0x0 c:/program files/avr8-gnu-toolchain-win32_x86/bin/../lib/gcc/avr/5.4.0/avrxmega7\libgcc.a(_udivmodqi4.o)
 .bss           0x00000000        0x0 c:/program files/avr8-gnu-toolchain-win32_x86/bin/../lib/gcc/avr/5.4.0/avrxmega7\libgcc.a(_udivmodqi4.o)
 .text.libgcc.mul
                0x00000000        0x0 c:/program files/avr8-gnu-toolchain-win32_x86/bin/../lib/gcc/avr/5.4.0/avrxmega7\libgcc.a(_udivmodqi4.o)
 .text.libgcc.div
                0x00000000       0x18 c:/program files/avr8-gnu-toolchain-win32_x86/bin/../lib/gcc/avr/5.4.0/avrxmega7\libgcc.a(_udivmodqi4.o)
 .text.libgcc   0x00000000        0x0 c:/program files/avr8-gnu-toolchain-win32_x86/bin/../lib/gcc/avr/5.4.0/avrxmega7\libgcc.a(_udivmodqi4.o)
 .text.libgcc.prologue
                0x00000000        0x0 c:/program files/avr8-gnu-toolchain-win32_x86/bin/../lib/gcc/avr/5.4.0/avrxmega7\libgcc.a(_udivmodqi4.o)
 .text.libgcc.builtins
                0x00000000        0x0 c:/program files/avr8-gnu-toolchain-win32_x86/bin/../lib/gcc/avr/5.4.0/avrxmega7\libgcc.a(_udivmodqi4.o)
 .text.libgcc.fmul
                0x00000000        0x0 c:/program files/avr8-gnu-toolchain-win32_x86/bin/../lib/gcc/avr/5.4.0/avrxmega7\libgcc.a(_udivmodqi4.o)
 .text.libgcc.fixed
                0x00000000        0x0 c:/program files/avr8-gnu-toolchain-win32_x86/bin/../lib/gcc/avr/5.4.0/avrxmega7\libgcc.a(_udivmodqi4.o)
 .text          0x00000000        0x0 c:/program files/avr8-gnu-toolchain-win32_x86/bin/../lib/gcc/avr/5.4.0/avrxmega7\libgcc.a(_udivmodhi4.o)
 .data          0x00000000        0x0 c:/program files/avr8-gnu-toolchain-win32_x86/bin/../lib/gcc/avr/5.4.0/avrxmega7\libgcc.a(_udivmodhi4.o)
 .bss           0x00000000        0x0 c:/program files/avr8-gnu-toolchain-win32_x86/bin/../lib/gcc/avr/5.4.0/avrxmega7\libgcc.a(_udivmodhi4.o)
 .text.libgcc.mul
                0x00000000        0x0 c:/program files/avr8-gnu-toolchain-win32_x86/bin/../lib/gcc/avr/5.4.0/avrxmega7\libgcc.a(_udivmodhi4.o)
 .text.libgcc   0x00000000        0x0 c:/program files/avr8-gnu-toolchain-win32_x86/bin/../lib/gcc/avr/5.4.0/avrxmega7\libgcc.a(_udivmodhi4.o)
 .text.libgcc.prologue
                0x00000000        0x0 c:/program files/avr8-gnu-toolchain-win32_x86/bin/../lib/gcc/avr/5.4.0/avrxmega7\libgcc.a(_udivmodhi4.o)
 .text.libgcc.builtins
                0x00000000        0x0 c:/program files/avr8-gnu-toolchain-win32_x86/bin/../lib/gcc/avr/5.4.0/avrxmega7\libgcc.a(_udivmodhi4.o)
 .text.libgcc.fmul
                0x00000000        0x0 c:/program files/avr8-gnu-toolchain-win32_x86/bin/../lib/gcc/avr/5.4.0/avrxmega7\libgcc.a(_udivmodhi4.o)
 .text.libgcc.fixed
                0x00000000        0x0 c:/program files/avr8-gnu-toolchain-win32_x86/bin/../lib/gcc/avr/5.4.0/avrxmega7\libgcc.a(_udivmodhi4.o)
 .text          0x00000000        0x0 c:/program files/avr8-gnu-toolchain-win32_x86/bin/../lib/gcc/avr/5.4.0/avrxmega7\libgcc.a(_exit.o)
 .data          0x00000000        0x0 c:/program files/avr8-gnu-toolchain-win32_x86/bin/../lib/gcc/avr/5.4.0/avrxmega7\libgcc.a(_exit.o)
 .bss           0x00000000        0x0 c:/program files/avr8-gnu-toolchain-win32_x86/bin/../lib/gcc/avr/5.4.0/avrxmega7\libgcc.a(_exit.o)
 .text.libgcc.mul
                0x00000000        0x0 c:/program files/avr8-gnu-toolchain-win32_x86/bin/../lib/gcc/avr/5.4.0/avrxmega7\libgcc.a(_exit.o)
 .text.libgcc.div
                0x00000000        0x0 c:/program files/avr8-gnu-toolchain-win32_x86/bin/../lib/gcc/avr/5.4.0/avrxmega7\libgcc.a(_exit.o)
 .text.libgcc   0x00000000        0x0 c:/program files/avr8-gnu-toolchain-win32_x86/bin/../lib/gcc/avr/5.4.0/avrxmega7\libgcc.a(_exit.o)
 .text.libgcc.prologue
                0x00000000        0x0 c:/program files/avr8-gnu-toolchain-win32_x86/bin/../lib/gcc/avr/5.4.0/avrxmega7\libgcc.a(_exit.o)
 .text.libgcc.builtins
                0x00000000        0x0 c:/program files/avr8-gnu-toolchain-win32_x86/bin/../lib/gcc/avr/5.4.0/avrxmega7\libgcc.a(_exit.o)
 .text.libgcc.fmul
                0x00000000        0x0 c:/program files/avr8-gnu-toolchain-win32_x86/bin/../lib/gcc/avr/5.4.0/avrxmega7\libgcc.a(_exit.o)
 .text.libgcc.fixed
                0x00000000        0x0 c:/program files/avr8-gnu-toolchain-win32_x86/bin/../lib/gcc/avr/5.4.0/avrxmega7\libgcc.a(_exit.o)
 .text          0x00000000        0x0 c:/program files/avr8-gnu-toolchain-win32_x86/bin/../lib/gcc/avr/5.4.0/avrxmega7\libgcc.a(_copy_data.o)
 .data          0x00000000        0x0 c:/program files/avr8-gnu-toolchain-win32_x86/bin/../lib/gcc/avr/5.4.0/avrxmega7\libgcc.a(_copy_data.o)
 .bss           0x00000000        0x0 c:/program files/avr8-gnu-toolchain-win32_x86/bin/../lib/gcc/avr/5.4.0/avrxmega7\libgcc.a(_copy_data.o)
 .text.libgcc.mul
                0x00000000        0x0 c:/program files/avr8-gnu-toolchain-win32_x86/bin/../lib/gcc/avr/5.4.0/avrxmega7\libgcc.a(_copy_data.o)
 .text.libgcc.div
                0x00000000        0x0 c:/program files/avr8-gnu-toolchain-win32_x86/bin/../lib/gcc/avr/5.4.0/avrxmega7\libgcc.a(_copy_data.o)
 .text.libgcc   0x00000000        0x0 c:/program files/avr8-gnu-toolchain-win32_x86/bin/../lib/gcc/avr/5.4.0/avrxmega7\libgcc.a(_copy_data.o)
 .text.libgcc.prologue
                0x00000000        0x0 c:/program files/avr8-gnu-toolchain-win32_x86/bin/../lib/gcc/avr/5.4.0/avrxmega7\libgcc.a(_copy_data.o)
 .text.libgcc.builtins
                0x00000000        0x0 c:/program files/avr8-gnu-toolchain-win32_x86/bin/../lib/gcc/avr/5.4.0/avrxmega7\libgcc.a(_copy_data.o)
 .text.libgcc.fmul
                0x00000000        0x0 c:/program files/avr8-gnu-toolchain-win32_x86/bin/../lib/gcc/avr/5.4.0/avrxmega7\libgcc.a(_copy_data.o)
 .text.libgcc.fixed
                0x00000000        0x0 c:/program files/avr8-gnu-toolchain-win32_x86/bin/../lib/gcc/avr/5.4.0/avrxmega7\libgcc.a(_copy_data.o)
 .text          0x00000000        0x0 c:/program files/avr8-gnu-toolchain-win32_x86/bin/../lib/gcc/avr/5.4.0/avrxmega7\libgcc.a(_clear_bss.o)
 .data          0x00000000        0x0 c:/program files/avr8-gnu-toolchain-win32_x86/bin/../lib/gcc/avr/5.4.0/avrxmega7\libgcc.a(_clear_bss.o)
 .bss           0x00000000        0x0 c:/program files/avr8-gnu-toolchain-win32_x86/bin/../lib/gcc/avr/5.4.0/avrxmega7\libgcc.a(_clear_bss.o)
 .text.libgcc.mul
                0x00000000        0x0 c:/program files/avr8-gnu-toolchain-win32_x86/bin/../lib/gcc/avr/5.4.0/avrxmega7\libgcc.a(_clear_bss.o)
 .text.libgcc.div
                0x00000000        0x0 c:/program files/avr8-gnu-toolchain-win32_x86/bin/../lib/gcc/avr/5.4.0/avrxmega7\libgcc.a(_clear_bss.o)
 .text.libgcc   0x00000000        0x0 c:/program files/avr8-gnu-toolchain-win32_x86/bin/../lib/gcc/avr/5.4.0/avrxmega7\libgcc.a(_clear_bss.o)
 .text.libgcc.prologue
                0x00000000        0x0 c:/program files/avr8-gnu-toolchain-win32_x86/bin/../lib/gcc/avr/5.4.0/avrxmega7\libgcc.a(_clear_bss.o)
 .text.libgcc.builtins
                0x00000000        0x0 c:/program files/avr8-gnu-toolchain-win32_x86/bin/../lib/gcc/avr/5.4.0/avrxmega7\libgcc.a(_clear_bss.o)
 .text.libgcc.fmul
                0x00000000        0x0 c:/program files/avr8-gnu-toolchain-win32_x86/bin/../lib/gcc/avr/5.4.0/avrxmega7\libgcc.a(_clear_bss.o)
 .text.libgcc.fixed
                0x00000000        0x0 c:/program files/avr8-gnu-toolchain-win32_x86/bin/../lib/gcc/avr/5.4.0/avrxmega7\libgcc.a(_clear_bss.o)
 .text          0x00000000        0x0 c:/program files/avr8-gnu-toolchain-win32_x86/bin/../lib/gcc/avr/5.4.0/avrxmega7\libgcc.a(_mulshisi3.o)
 .data          0x00000000        0x0 c:/program files/avr8-gnu-toolchain-win32_x86/bin/../lib/gcc/avr/5.4.0/avrxmega7\libgcc.a(_mulshisi3.o)
 .bss           0x00000000        0x0 c:/program files/avr8-gnu-toolchain-win32_x86/bin/../lib/gcc/avr/5.4.0/avrxmega7\libgcc.a(_mulshisi3.o)
 .text.libgcc.div
                0x00000000        0x0 c:/program files/avr8-gnu-toolchain-win32_x86/bin/../lib/gcc/avr/5.4.0/avrxmega7\libgcc.a(_mulshisi3.o)
 .text.libgcc   0x00000000        0x0 c:/program files/avr8-gnu-toolchain-win32_x86/bin/../lib/gcc/avr/5.4.0/avrxmega7\libgcc.a(_mulshisi3.o)
 .text.libgcc.prologue
                0x00000000        0x0 c:/program files/avr8-gnu-toolchain-win32_x86/bin/../lib/gcc/avr/5.4.0/avrxmega7\libgcc.a(_mulshisi3.o)
 .text.libgcc.builtins
                0x00000000        0x0 c:/program files/avr8-gnu-toolchain-win32_x86/bin/../lib/gcc/avr/5.4.0/avrxmega7\libgcc.a(_mulshisi3.o)
 .text.libgcc.fmul
                0x00000000        0x0 c:/program files/avr8-gnu-toolchain-win32_x86/bin/../lib/gcc/avr/5.4.0/avrxmega7\libgcc.a(_mulshisi3.o)
 .text.libgcc.fixed
                0x00000000        0x0 c:/program files/avr8-gnu-toolchain-win32_x86/bin/../lib/gcc/avr/5.4.0/avrxmega7\libgcc.a(_mulshisi3.o)
 .text          0x00000000        0x0 c:/program files/avr8-gnu-toolchain-win32_x86/bin/../lib/gcc/avr/5.4.0/avrxmega7\libgcc.a(_muluhisi3.o)
 .data          0x00000000        0x0 c:/program files/avr8-gnu-toolchain-win32_x86/bin/../lib/gcc/avr/5.4.0/avrxmega7\libgcc.a(_muluhisi3.o)
 .bss           0x00000000        0x0 c:/program files/avr8-gnu-toolchain-win32_x86/bin/../lib/gcc/avr/5.4.0/avrxmega7\libgcc.a(_muluhisi3.o)
 .text.libgcc.div
                0x00000000        0x0 c:/program files/avr8-gnu-toolchain-win32_x86/bin/../lib/gcc/avr/5.4.0/avrxmega7\libgcc.a(_muluhisi3.o)
 .text.libgcc   0x00000000        0x0 c:/program files/avr8-gnu-toolchain-win32_x86/bin/../lib/gcc/avr/5.4.0/avrxmega7\libgcc.a(_muluhisi3.o)
 .text.libgcc.prologue
                0x00000000        0x0 c:/program files/avr8-gnu-toolchain-win32_x86/bin/../lib/gcc/avr/5.4.0/avrxmega7\libgcc.a(_muluhisi3.o)
 .text.libgcc.builtins
                0x00000000        0x0 c:/program files/avr8-gnu-toolchain-win32_x86/bin/../lib/gcc/avr/5.4.0/avrxmega7\libgcc.a(_muluhisi3.o)
 .text.libgcc.fmul
                0x00000000        0x0 c:/program files/avr8-gnu-toolchain-win32_x86/bin/../lib/gcc/avr/5.4.0/avrxmega7\libgcc.a(_muluhisi3.o)
 .text.libgcc.fixed
                0x00000000        0x0 c:/program files/avr8-gnu-toolchain-win32_x86/bin/../lib/gcc/avr/5.4.0/avrxmega7\libgcc.a(_muluhisi3.o)
 .text          0x00000000        0x0 c:/program files/avr8-gnu-toolchain-win32_x86/bin/../lib/gcc/avr/5.4.0/avrxmega7\libgcc.a(_umulhisi3.o)
 .data          0x00000000        0x0 c:/program files/avr8-gnu-toolchain-win32_x86/bin/../lib/gcc/avr/5.4.0/avrxmega7\libgcc.a(_umulhisi3.o)
 .bss           0x00000000        0x0 c:/program files/avr8-gnu-toolchain-win32_x86/bin/../lib/gcc/avr/5.4.0/avrxmega7\libgcc.a(_umulhisi3.o)
 .text.libgcc.div
                0x00000000        0x0 c:/program files/avr8-gnu-toolchain-win32_x86/bin/../lib/gcc/avr/5.4.0/avrxmega7\libgcc.a(_umulhisi3.o)
 .text.libgcc   0x00000000        0x0 c:/program files/avr8-gnu-toolchain-win32_x86/bin/../lib/gcc/avr/5.4.0/avrxmega7\libgcc.a(_umulhisi3.o)
 .text.libgcc.prologue
                0x00000000        0x0 c:/program files/avr8-gnu-toolchain-win32_x86/bin/../lib/gcc/avr/5.4.0/avrxmega7\libgcc.a(_umulhisi3.o)
 .text.libgcc.builtins
                0x00000000        0x0 c:/program files/avr8-gnu-toolchain-win32_x86/bin/../lib/gcc/avr/5.4.0/avrxmega7\libgcc.a(_umulhisi3.o)
 .text.libgcc.fmul
                0x00000000        0x0 c:/program files/avr8-gnu-toolchain-win32_x86/bin/../lib/gcc/avr/5.4.0/avrxmega7\libgcc.a(_umulhisi3.o)
 .text.libgcc.fixed
                0x00000000        0x0 c:/program files/avr8-gnu-toolchain-win32_x86/bin/../lib/gcc/avr/5.4.0/avrxmega7\libgcc.a(_umulhisi3.o)
 .text          0x00000000        0x0 c:/program files/avr8-gnu-toolchain-win32_x86/bin/../lib/gcc/avr/5.4.0/../../../../avr/lib/avrxmega7\libc.a(rand.o)
 .bss           0x00000000        0x0 c:/program files/avr8-gnu-toolchain-win32_x86/bin/../lib/gcc/avr/5.4.0/../../../../avr/lib/avrxmega7\libc.a(rand.o)
 .text          0x00000000        0x0 c:/program files/avr8-gnu-toolchain-win32_x86/bin/../lib/gcc/avr/5.4.0/../../../../avr/lib/avrxmega7\libc.a(memcpy_P.o)
 .data          0x00000000        0x0 c:/program files/avr8-gnu-toolchain-win32_x86/bin/../lib/gcc/avr/5.4.0/../../../../avr/lib/avrxmega7\libc.a(memcpy_P.o)
 .bss           0x00000000        0x0 c:/program files/avr8-gnu-toolchain-win32_x86/bin/../lib/gcc/avr/5.4.0/../../../../avr/lib/avrxmega7\libc.a(memcpy_P.o)
 .text          0x00000000        0x0 c:/program files/avr8-gnu-toolchain-win32_x86/bin/../lib/gcc/avr/5.4.0/../../../../avr/lib/avrxmega7\libc.a(strcmp_P.o)
 .data          0x00000000        0x0 c:/program files/avr8-gnu-toolchain-win32_x86/bin/../lib/gcc/avr/5.4.0/../../../../avr/lib/avrxmega7\libc.a(strcmp_P.o)
 .bss           0x00000000        0x0 c:/program files/avr8-gnu-toolchain-win32_x86/bin/../lib/gcc/avr/5.4.0/../../../../avr/lib/avrxmega7\libc.a(strcmp_P.o)
 .text          0x00000000        0x0 c:/program files/avr8-gnu-toolchain-win32_x86/bin/../lib/gcc/avr/5.4.0/../../../../avr/lib/avrxmega7\libc.a(strlen_P.o)
 .data          0x00000000        0x0 c:/program files/avr8-gnu-toolchain-win32_x86/bin/../lib/gcc/avr/5.4.0/../../../../avr/lib/avrxmega7\libc.a(strlen_P.o)
 .bss           0x00000000        0x0 c:/program files/avr8-gnu-toolchain-win32_x86/bin/../lib/gcc/avr/5.4.0/../../../../avr/lib/avrxmega7\libc.a(strlen_P.o)
 .text.avr-libc
                0x00000000       0x12 c:/program files/avr8-gnu-toolchain-win32_x86/bin/../lib/gcc/avr/5.4.0/../../../../avr/lib/avrxmega7\libc.a(strlen_P.o)
 .text          0x00000000        0x0 c:/program files/avr8-gnu-toolchain-win32_x86/bin/../lib/gcc/avr/5.4.0/../../../../avr/lib/avrxmega7\libc.a(strncpy_P.o)
 .data          0x00000000        0x0 c:/program files/avr8-gnu-toolchain-win32_x86/bin/../lib/gcc/avr/5.4.0/../../../../avr/lib/avrxmega7\libc.a(strncpy_P.o)
 .bss           0x00000000        0x0 c:/program files/avr8-gnu-toolchain-win32_x86/bin/../lib/gcc/avr/5.4.0/../../../../avr/lib/avrxmega7\libc.a(strncpy_P.o)
 .text          0x00000000        0x0 c:/program files/avr8-gnu-toolchain-win32_x86/bin/../lib/gcc/avr/5.4.0/../../../../avr/lib/avrxmega7\libc.a(memcmp.o)
 .data          0x00000000        0x0 c:/program files/avr8-gnu-toolchain-win32_x86/bin/../lib/gcc/avr/5.4.0/../../../../avr/lib/avrxmega7\libc.a(memcmp.o)
 .bss           0x00000000        0x0 c:/program files/avr8-gnu-toolchain-win32_x86/bin/../lib/gcc/avr/5.4.0/../../../../avr/lib/avrxmega7\libc.a(memcmp.o)
 .text          0x00000000        0x0 c:/program files/avr8-gnu-toolchain-win32_x86/bin/../lib/gcc/avr/5.4.0/../../../../avr/lib/avrxmega7\libc.a(memcpy.o)
 .data          0x00000000        0x0 c:/program files/avr8-gnu-toolchain-win32_x86/bin/../lib/gcc/avr/5.4.0/../../../../avr/lib/avrxmega7\libc.a(memcpy.o)
 .bss           0x00000000        0x0 c:/program files/avr8-gnu-toolchain-win32_x86/bin/../lib/gcc/avr/5.4.0/../../../../avr/lib/avrxmega7\libc.a(memcpy.o)
 .text          0x00000000        0x0 c:/program files/avr8-gnu-toolchain-win32_x86/bin/../lib/gcc/avr/5.4.0/../../../../avr/lib/avrxmega7\libc.a(memmove.o)
 .data          0x00000000        0x0 c:/program files/avr8-gnu-toolchain-win32_x86/bin/../lib/gcc/avr/5.4.0/../../../../avr/lib/avrxmega7\libc.a(memmove.o)
 .bss           0x00000000        0x0 c:/program files/avr8-gnu-toolchain-win32_x86/bin/../lib/gcc/avr/5.4.0/../../../../avr/lib/avrxmega7\libc.a(memmove.o)
 .text          0x00000000        0x0 c:/program files/avr8-gnu-toolchain-win32_x86/bin/../lib/gcc/avr/5.4.0/../../../../avr/lib/avrxmega7\libc.a(memset.o)
 .data          0x00000000        0x0 c:/program files/avr8-gnu-toolchain-win32_x86/bin/../lib/gcc/avr/5.4.0/../../../../avr/lib/avrxmega7\libc.a(memset.o)
 .bss           0x00000000        0x0 c:/program files/avr8-gnu-toolchain-win32_x86/bin/../lib/gcc/avr/5.4.0/../../../../avr/lib/avrxmega7\libc.a(memset.o)
 .text          0x00000000        0x0 c:/program files/avr8-gnu-toolchain-win32_x86/bin/../lib/gcc/avr/5.4.0/../../../../avr/lib/avrxmega7\libc.a(strchr.o)
 .data          0x00000000        0x0 c:/program files/avr8-gnu-toolchain-win32_x86/bin/../lib/gcc/avr/5.4.0/../../../../avr/lib/avrxmega7\libc.a(strchr.o)
 .bss           0x00000000        0x0 c:/program files/avr8-gnu-toolchain-win32_x86/bin/../lib/gcc/avr/5.4.0/../../../../avr/lib/avrxmega7\libc.a(strchr.o)
 .text          0x00000000        0x0 c:/program files/avr8-gnu-toolchain-win32_x86/bin/../lib/gcc/avr/5.4.0/../../../../avr/lib/avrxmega7\libc.a(strcpy.o)
 .data          0x00000000        0x0 c:/program files/avr8-gnu-toolchain-win32_x86/bin/../lib/gcc/avr/5.4.0/../../../../avr/lib/avrxmega7\libc.a(strcpy.o)
 .bss           0x00000000        0x0 c:/program files/avr8-gnu-toolchain-win32_x86/bin/../lib/gcc/avr/5.4.0/../../../../avr/lib/avrxmega7\libc.a(strcpy.o)
 .text          0x00000000        0x0 c:/program files/avr8-gnu-toolchain-win32_x86/bin/../lib/gcc/avr/5.4.0/../../../../avr/lib/avrxmega7\libc.a(snprintf.o)
 .data          0x00000000        0x0 c:/program files/avr8-gnu-toolchain-win32_x86/bin/../lib/gcc/avr/5.4.0/../../../../avr/lib/avrxmega7\libc.a(snprintf.o)
 .bss           0x00000000        0x0 c:/program files/avr8-gnu-toolchain-win32_x86/bin/../lib/gcc/avr/5.4.0/../../../../avr/lib/avrxmega7\libc.a(snprintf.o)
 .text          0x00000000        0x0 c:/program files/avr8-gnu-toolchain-win32_x86/bin/../lib/gcc/avr/5.4.0/../../../../avr/lib/avrxmega7\libc.a(snprintf_p.o)
 .data          0x00000000        0x0 c:/program files/avr8-gnu-toolchain-win32_x86/bin/../lib/gcc/avr/5.4.0/../../../../avr/lib/avrxmega7\libc.a(snprintf_p.o)
 .bss           0x00000000        0x0 c:/program files/avr8-gnu-toolchain-win32_x86/bin/../lib/gcc/avr/5.4.0/../../../../avr/lib/avrxmega7\libc.a(snprintf_p.o)
 .text          0x00000000        0x0 c:/program files/avr8-gnu-toolchain-win32_x86/bin/../lib/gcc/avr/5.4.0/../../../../avr/lib/avrxmega7\libc.a(sscanf_p.o)
 .data          0x00000000        0x0 c:/program files/avr8-gnu-toolchain-win32_x86/bin/../lib/gcc/avr/5.4.0/../../../../avr/lib/avrxmega7\libc.a(sscanf_p.o)
 .bss           0x00000000        0x0 c:/program files/avr8-gnu-toolchain-win32_x86/bin/../lib/gcc/avr/5.4.0/../../../../avr/lib/avrxmega7\libc.a(sscanf_p.o)
 .text          0x00000000        0x0 c:/program files/avr8-gnu-toolchain-win32_x86/bin/../lib/gcc/avr/5.4.0/../../../../avr/lib/avrxmega7\libc.a(vfprintf_std.o)
 .data          0x00000000        0x0 c:/program files/avr8-gnu-toolchain-win32_x86/bin/../lib/gcc/avr/5.4.0/../../../../avr/lib/avrxmega7\libc.a(vfprintf_std.o)
 .bss           0x00000000        0x0 c:/program files/avr8-gnu-toolchain-win32_x86/bin/../lib/gcc/avr/5.4.0/../../../../avr/lib/avrxmega7\libc.a(vfprintf_std.o)
 .text          0x00000000        0x0 c:/program files/avr8-gnu-toolchain-win32_x86/bin/../lib/gcc/avr/5.4.0/../../../../avr/lib/avrxmega7\libc.a(vfscanf_std.o)
 .data          0x00000000        0x0 c:/program files/avr8-gnu-toolchain-win32_x86/bin/../lib/gcc/avr/5.4.0/../../../../avr/lib/avrxmega7\libc.a(vfscanf_std.o)
 .bss           0x00000000        0x0 c:/program files/avr8-gnu-toolchain-win32_x86/bin/../lib/gcc/avr/5.4.0/../../../../avr/lib/avrxmega7\libc.a(vfscanf_std.o)
 .text          0x00000000        0x0 c:/program files/avr8-gnu-toolchain-win32_x86/bin/../lib/gcc/avr/5.4.0/../../../../avr/lib/avrxmega7\libc.a(isspace.o)
 .data          0x00000000        0x0 c:/program files/avr8-gnu-toolchain-win32_x86/bin/../lib/gcc/avr/5.4.0/../../../../avr/lib/avrxmega7\libc.a(isspace.o)
 .bss           0x00000000        0x0 c:/program files/avr8-gnu-toolchain-win32_x86/bin/../lib/gcc/avr/5.4.0/../../../../avr/lib/avrxmega7\libc.a(isspace.o)
 .text          0x00000000        0x0 c:/program files/avr8-gnu-toolchain-win32_x86/bin/../lib/gcc/avr/5.4.0/../../../../avr/lib/avrxmega7\libc.a(strchr_P.o)
 .data          0x00000000        0x0 c:/program files/avr8-gnu-toolchain-win32_x86/bin/../lib/gcc/avr/5.4.0/../../../../avr/lib/avrxmega7\libc.a(strchr_P.o)
 .bss           0x00000000        0x0 c:/program files/avr8-gnu-toolchain-win32_x86/bin/../lib/gcc/avr/5.4.0/../../../../avr/lib/avrxmega7\libc.a(strchr_P.o)
 .text          0x00000000        0x0 c:/program files/avr8-gnu-toolchain-win32_x86/bin/../lib/gcc/avr/5.4.0/../../../../avr/lib/avrxmega7\libc.a(strnlen_P.o)
 .data          0x00000000        0x0 c:/program files/avr8-gnu-toolchain-win32_x86/bin/../lib/gcc/avr/5.4.0/../../../../avr/lib/avrxmega7\libc.a(strnlen_P.o)
 .bss           0x00000000        0x0 c:/program files/avr8-gnu-toolchain-win32_x86/bin/../lib/gcc/avr/5.4.0/../../../../avr/lib/avrxmega7\libc.a(strnlen_P.o)
 .text          0x00000000        0x0 c:/program files/avr8-gnu-toolchain-win32_x86/bin/../lib/gcc/avr/5.4.0/../../../../avr/lib/avrxmega7\libc.a(strnlen.o)
 .data          0x00000000        0x0 c:/program files/avr8-gnu-toolchain-win32_x86/bin/../lib/gcc/avr/5.4.0/../../../../avr/lib/avrxmega7\libc.a(strnlen.o)
 .bss           0x00000000        0x0 c:/program files/avr8-gnu-toolchain-win32_x86/bin/../lib/gcc/avr/5.4.0/../../../../avr/lib/avrxmega7\libc.a(strnlen.o)
 .text          0x00000000        0x0 c:/program files/avr8-gnu-toolchain-win32_x86/bin/../lib/gcc/avr/5.4.0/../../../../avr/lib/avrxmega7\libc.a(fgetc.o)
 .data          0x00000000        0x0 c:/program files/avr8-gnu-toolchain-win32_x86/bin/../lib/gcc/avr/5.4.0/../../../../avr/lib/avrxmega7\libc.a(fgetc.o)
 .bss           0x00000000        0x0 c:/program files/avr8-gnu-toolchain-win32_x86/bin/../lib/gcc/avr/5.4.0/../../../../avr/lib/avrxmega7\libc.a(fgetc.o)
 .text          0x00000000        0x0 c:/program files/avr8-gnu-toolchain-win32_x86/bin/../lib/gcc/avr/5.4.0/../../../../avr/lib/avrxmega7\libc.a(fputc.o)
 .data          0x00000000        0x0 c:/program files/avr8-gnu-toolchain-win32_x86/bin/../lib/gcc/avr/5.4.0/../../../../avr/lib/avrxmega7\libc.a(fputc.o)
 .bss           0x00000000        0x0 c:/program files/avr8-gnu-toolchain-win32_x86/bin/../lib/gcc/avr/5.4.0/../../../../avr/lib/avrxmega7\libc.a(fputc.o)
 .text          0x00000000        0x0 c:/program files/avr8-gnu-toolchain-win32_x86/bin/../lib/gcc/avr/5.4.0/../../../../avr/lib/avrxmega7\libc.a(ungetc.o)
 .data          0x00000000        0x0 c:/program files/avr8-gnu-toolchain-win32_x86/bin/../lib/gcc/avr/5.4.0/../../../../avr/lib/avrxmega7\libc.a(ungetc.o)
 .bss           0x00000000        0x0 c:/program files/avr8-gnu-toolchain-win32_x86/bin/../lib/gcc/avr/5.4.0/../../../../avr/lib/avrxmega7\libc.a(ungetc.o)
 .text          0x00000000        0x0 c:/program files/avr8-gnu-toolchain-win32_x86/bin/../lib/gcc/avr/5.4.0/../../../../avr/lib/avrxmega7\libc.a(ultoa_invert.o)
 .data          0x00000000        0x0 c:/program files/avr8-gnu-toolchain-win32_x86/bin/../lib/gcc/avr/5.4.0/../../../../avr/lib/avrxmega7\libc.a(ultoa_invert.o)
 .bss           0x00000000        0x0 c:/program files/avr8-gnu-toolchain-win32_x86/bin/../lib/gcc/avr/5.4.0/../../../../avr/lib/avrxmega7\libc.a(ultoa_invert.o)
 .text          0x00000000        0x0 c:/program files/avr8-gnu-toolchain-win32_x86/bin/../lib/gcc/avr/5.4.0/../../../../avr/lib/avrxmega7\libc.a(cty_isfalse.o)
 .data          0x00000000        0x0 c:/program files/avr8-gnu-toolchain-win32_x86/bin/../lib/gcc/avr/5.4.0/../../../../avr/lib/avrxmega7\libc.a(cty_isfalse.o)
 .bss           0x00000000        0x0 c:/program files/avr8-gnu-toolchain-win32_x86/bin/../lib/gcc/avr/5.4.0/../../../../avr/lib/avrxmega7\libc.a(cty_isfalse.o)
 .text          0x00000000        0x0 c:/program files/avr8-gnu-toolchain-win32_x86/bin/../lib/gcc/avr/5.4.0/../../../../avr/lib/avrxmega7\libatxmega128a4u.a(eerd_byte.o)
 .data          0x00000000        0x0 c:/program files/avr8-gnu-toolchain-win32_x86/bin/../lib/gcc/avr/5.4.0/../../../../avr/lib/avrxmega7\libatxmega128a4u.a(eerd_byte.o)
 .bss           0x00000000        0x0 c:/program files/avr8-gnu-toolchain-win32_x86/bin/../lib/gcc/avr/5.4.0/../../../../avr/lib/avrxmega7\libatxmega128a4u.a(eerd_byte.o)
 .text          0x00000000        0x0 c:/program files/avr8-gnu-toolchain-win32_x86/bin/../lib/gcc/avr/5.4.0/../../../../avr/lib/avrxmega7\libatxmega128a4u.a(eeupd_byte.o)
 .data          0x00000000        0x0 c:/program files/avr8-gnu-toolchain-win32_x86/bin/../lib/gcc/avr/5.4.0/../../../../avr/lib/avrxmega7\libatxmega128a4u.a(eeupd_byte.o)
 .bss           0x00000000        0x0 c:/program files/avr8-gnu-toolchain-win32_x86/bin/../lib/gcc/avr/5.4.0/../../../../avr/lib/avrxmega7\libatxmega128a4u.a(eeupd_byte.o)
 .text          0x00000000        0x0 c:/program files/avr8-gnu-toolchain-win32_x86/bin/../lib/gcc/avr/5.4.0/../../../../avr/lib/avrxmega7\libatxmega128a4u.a(eeupd_word.o)
 .data          0x00000000        0x0 c:/program files/avr8-gnu-toolchain-win32_x86/bin/../lib/gcc/avr/5.4.0/../../../../avr/lib/avrxmega7\libatxmega128a4u.a(eeupd_word.o)
 .bss           0x00000000        0x0 c:/program files/avr8-gnu-toolchain-win32_x86/bin/../lib/gcc/avr/5.4.0/../../../../avr/lib/avrxmega7\libatxmega128a4u.a(eeupd_word.o)
 .text          0x00000000        0x0 c:/program files/avr8-gnu-toolchain-win32_x86/bin/../lib/gcc/avr/5.4.0/../../../../avr/lib/avrxmega7\libatxmega128a4u.a(eewr_byte.o)
 .data          0x00000000        0x0 c:/program files/avr8-gnu-toolchain-win32_x86/bin/../lib/gcc/avr/5.4.0/../../../../avr/lib/avrxmega7\libatxmega128a4u.a(eewr_byte.o)
 .bss           0x00000000        0x0 c:/program files/avr8-gnu-toolchain-win32_x86/bin/../lib/gcc/avr/5.4.0/../../../../avr/lib/avrxmega7\libatxmega128a4u.a(eewr_byte.o)
 .text          0x00000000        0x0 c:/program files/avr8-gnu-toolchain-win32_x86/bin/../lib/gcc/avr/5.4.0/avrxmega7\libgcc.a(_divmodsi4.o)
 .data          0x00000000        0x0 c:/program files/avr8-gnu-toolchain-win32_x86/bin/../lib/gcc/avr/5.4.0/avrxmega7\libgcc.a(_divmodsi4.o)
 .bss           0x00000000        0x0 c:/program files/avr8-gnu-toolchain-win32_x86/bin/../lib/gcc/avr/5.4.0/avrxmega7\libgcc.a(_divmodsi4.o)
 .text.libgcc.mul
                0x00000000        0x0 c:/program files/avr8-gnu-toolchain-win32_x86/bin/../lib/gcc/avr/5.4.0/avrxmega7\libgcc.a(_divmodsi4.o)
 .text.libgcc   0x00000000        0x0 c:/program files/avr8-gnu-toolchain-win32_x86/bin/../lib/gcc/avr/5.4.0/avrxmega7\libgcc.a(_divmodsi4.o)
 .text.libgcc.prologue
                0x00000000        0x0 c:/program files/avr8-gnu-toolchain-win32_x86/bin/../lib/gcc/avr/5.4.0/avrxmega7\libgcc.a(_divmodsi4.o)
 .text.libgcc.builtins
                0x00000000        0x0 c:/program files/avr8-gnu-toolchain-win32_x86/bin/../lib/gcc/avr/5.4.0/avrxmega7\libgcc.a(_divmodsi4.o)
 .text.libgcc.fmul
                0x00000000        0x0 c:/program files/avr8-gnu-toolchain-win32_x86/bin/../lib/gcc/avr/5.4.0/avrxmega7\libgcc.a(_divmodsi4.o)
 .text.libgcc.fixed
                0x00000000        0x0 c:/program files/avr8-gnu-toolchain-win32_x86/bin/../lib/gcc/avr/5.4.0/avrxmega7\libgcc.a(_divmodsi4.o)
 .text          0x00000000        0x0 c:/program files/avr8-gnu-toolchain-win32_x86/bin/../lib/gcc/avr/5.4.0/avrxmega7\libgcc.a(_negsi2.o)
 .data          0x00000000        0x0 c:/program files/avr8-gnu-toolchain-win32_x86/bin/../lib/gcc/avr/5.4.0/avrxmega7\libgcc.a(_negsi2.o)
 .bss           0x00000000        0x0 c:/program files/avr8-gnu-toolchain-win32_x86/bin/../lib/gcc/avr/5.4.0/avrxmega7\libgcc.a(_negsi2.o)
 .text.libgcc.mul
                0x00000000        0x0 c:/program files/avr8-gnu-toolchain-win32_x86/bin/../lib/gcc/avr/5.4.0/avrxmega7\libgcc.a(_negsi2.o)
 .text.libgcc   0x00000000        0x0 c:/program files/avr8-gnu-toolchain-win32_x86/bin/../lib/gcc/avr/5.4.0/avrxmega7\libgcc.a(_negsi2.o)
 .text.libgcc.prologue
                0x00000000        0x0 c:/program files/avr8-gnu-toolchain-win32_x86/bin/../lib/gcc/avr/5.4.0/avrxmega7\libgcc.a(_negsi2.o)
 .text.libgcc.builtins
                0x00000000        0x0 c:/program files/avr8-gnu-toolchain-win32_x86/bin/../lib/gcc/avr/5.4.0/avrxmega7\libgcc.a(_negsi2.o)
 .text.libgcc.fmul
                0x00000000        0x0 c:/program files/avr8-gnu-toolchain-win32_x86/bin/../lib/gcc/avr/5.4.0/avrxmega7\libgcc.a(_negsi2.o)
 .text.libgcc.fixed
                0x00000000        0x0 c:/program files/avr8-gnu-toolchain-win32_x86/bin/../lib/gcc/avr/5.4.0/avrxmega7\libgcc.a(_negsi2.o)
 .text          0x00000000        0x0 c:/program files/avr8-gnu-toolchain-win32_x86/bin/../lib/gcc/avr/5.4.0/avrxmega7\libgcc.a(_udivmodsi4.o)
 .data          0x00000000        0x0 c:/program files/avr8-gnu-toolchain-win32_x86/bin/../lib/gcc/avr/5.4.0/avrxmega7\libgcc.a(_udivmodsi4.o)
 .bss           0x00000000        0x0 c:/program files/avr8-gnu-toolchain-win32_x86/bin/../lib/gcc/avr/5.4.0/avrxmega7\libgcc.a(_udivmodsi4.o)
 .text.libgcc.mul
                0x00000000        0x0 c:/program files/avr8-gnu-toolchain-win32_x86/bin/../lib/gcc/avr/5.4.0/avrxmega7\libgcc.a(_udivmodsi4.o)
 .text.libgcc   0x00000000        0x0 c:/program files/avr8-gnu-toolchain-win32_x86/bin/../lib/gcc/avr/5.4.0/avrxmega7\libgcc.a(_udivmodsi4.o)
 .text.libgcc.prologue
                0x00000000        0x0 c:/program files/avr8-gnu-toolchain-win32_x86/bin/../lib/gcc/avr/5.4.0/avrxmega7\libgcc.a(_udivmodsi4.o)
 .text.libgcc.builtins
                0x00000000        0x0 c:/program files/avr8-gnu-toolchain-win32_x86/bin/../lib/gcc/avr/5.4.0/avrxmega7\libgcc.a(_udivmodsi4.o)
 .text.libgcc.fmul
                0x00000000        0x0 c:/program files/avr8-gnu-toolchain-win32_x86/bin/../lib/gcc/avr/5.4.0/avrxmega7\libgcc.a(_udivmodsi4.o)
 .text.libgcc.fixed
                0x00000000        0x0 c:/program files/avr8-gnu-toolchain-win32_x86/bin/../lib/gcc/avr/5.4.0/avrxmega7\libgcc.a(_udivmodsi4.o)

Memory Configuration

Name             Origin             Length             Attributes
text             0x00000000         0x00100000         xr
data             0x00802000         0x0000ffa0         rw !x
eeprom           0x00810000         0x00010000         rw !x
fuse             0x00820000         0x00000006         rw !x
lock             0x00830000         0x00000400         rw !x
signature        0x00840000         0x00000400         rw !x
user_signatures  0x00850000         0x00000400         rw !x
*default*        0x00000000         0xffffffff

Linker script and memory map

LOAD c:/program files/avr8-gnu-toolchain-win32_x86/bin/../lib/gcc/avr/5.4.0/../../../../avr/lib/avrxmega7/crtatxmega128a4u.o
LOAD Bin/Chameleon-Mini.o
LOAD Bin/LUFADescriptors.o
LOAD Bin/System.o
LOAD Bin/ISRSharing.o
LOAD Bin/Configuration.o
LOAD Bin/Random.o
LOAD Bin/Common.o
LOAD Bin/Memory.o
LOAD Bin/MemoryAsm.o
LOAD Bin/Button.o
LOAD Bin/Log.o
LOAD Bin/Settings.o
LOAD Bin/LED.o
LOAD Bin/Map.o
LOAD Bin/AntennaLevel.o
LOAD Bin/Terminal.o
LOAD Bin/Commands.o
LOAD Bin/XModem.o
LOAD Bin/CommandLine.o
LOAD Bin/Codec.o
LOAD Bin/ISO14443-2A.o
LOAD Bin/Reader14443-2A.o
LOAD Bin/SniffISO14443-2A.o
LOAD Bin/Reader14443-ISR.o
LOAD Bin/MifareUltralight.o
LOAD Bin/MifareClassic.o
LOAD Bin/ISO14443-3A.o
LOAD Bin/Crypto1.o
LOAD Bin/Reader14443A.o
LOAD Bin/Sniff14443A.o
LOAD Bin/CryptoTDEA.o
LOAD Bin/NFC_Command.o
LOAD Bin/NTAG215.o
LOAD Bin/ISO15693.o
LOAD Bin/Vicinity.o
LOAD Bin/Sl2s2002.o
LOAD Bin/TITagitstandard.o
LOAD Bin/ISO15693-A.o
LOAD Bin/EM4233.o
LOAD Bin/HIDParser.o
LOAD Bin/ConfigDescriptors.o
LOAD Bin/DeviceStandardReq.o
LOAD Bin/Events.o
LOAD Bin/HostStandardReq.o
LOAD Bin/USBTask.o
LOAD Bin/Device_XMEGA.o
LOAD Bin/EndpointStream_XMEGA.o
LOAD Bin/Endpoint_XMEGA.o
LOAD Bin/Host_XMEGA.o
LOAD Bin/PipeStream_XMEGA.o
LOAD Bin/Pipe_XMEGA.o
LOAD Bin/USBController_XMEGA.o
LOAD Bin/USBInterrupt_XMEGA.o
LOAD Bin/AudioClassDevice.o
LOAD Bin/CDCClassDevice.o
LOAD Bin/HIDClassDevice.o
LOAD Bin/MassStorageClassDevice.o
LOAD Bin/MIDIClassDevice.o
LOAD Bin/PrinterClassDevice.o
LOAD Bin/RNDISClassDevice.o
LOAD Bin/AndroidAccessoryClassHost.o
LOAD Bin/AudioClassHost.o
LOAD Bin/CDCClassHost.o
LOAD Bin/HIDClassHost.o
LOAD Bin/MassStorageClassHost.o
LOAD Bin/MIDIClassHost.o
LOAD Bin/PrinterClassHost.o
LOAD Bin/RNDISClassHost.o
LOAD Bin/StillImageClassHost.o
LOAD c:/program files/avr8-gnu-toolchain-win32_x86/bin/../lib/gcc/avr/5.4.0/../../../../avr/lib/avrxmega7\libm.a
Address of section .flashdata set to 0x10000
Address of section .spmhelper set to 0x21fe0
START GROUP
LOAD c:/program files/avr8-gnu-toolchain-win32_x86/bin/../lib/gcc/avr/5.4.0/avrxmega7\libgcc.a
LOAD c:/program files/avr8-gnu-toolchain-win32_x86/bin/../lib/gcc/avr/5.4.0/../../../../avr/lib/avrxmega7\libm.a
LOAD c:/program files/avr8-gnu-toolchain-win32_x86/bin/../lib/gcc/avr/5.4.0/../../../../avr/lib/avrxmega7\libc.a
LOAD c:/program files/avr8-gnu-toolchain-win32_x86/bin/../lib/gcc/avr/5.4.0/../../../../avr/lib/avrxmega7\libatxmega128a4u.a
END GROUP
                0x00100000                __TEXT_REGION_LENGTH__ = DEFINED (__TEXT_REGION_LENGTH__)?__TEXT_REGION_LENGTH__:0x100000
                0x0000ffa0                __DATA_REGION_LENGTH__ = DEFINED (__DATA_REGION_LENGTH__)?__DATA_REGION_LENGTH__:0xffa0
                0x00010000                __EEPROM_REGION_LENGTH__ = DEFINED (__EEPROM_REGION_LENGTH__)?__EEPROM_REGION_LENGTH__:0x10000
                [0x00000006]                __FUSE_REGION_LENGTH__ = DEFINED (__FUSE_REGION_LENGTH__)?__FUSE_REGION_LENGTH__:0x400
                0x00000400                __LOCK_REGION_LENGTH__ = DEFINED (__LOCK_REGION_LENGTH__)?__LOCK_REGION_LENGTH__:0x400
                0x00000400                __SIGNATURE_REGION_LENGTH__ = DEFINED (__SIGNATURE_REGION_LENGTH__)?__SIGNATURE_REGION_LENGTH__:0x400
                0x00000400                __USER_SIGNATURE_REGION_LENGTH__ = DEFINED (__USER_SIGNATURE_REGION_LENGTH__)?__USER_SIGNATURE_REGION_LENGTH__:0x400

.hash
 *(.hash)

.dynsym
 *(.dynsym)

.dynstr
 *(.dynstr)

.gnu.version
 *(.gnu.version)

.gnu.version_d
 *(.gnu.version_d)

.gnu.version_r
 *(.gnu.version_r)

.rel.init
 *(.rel.init)

.rela.init
 *(.rela.init)

.rel.text
 *(.rel.text)
 *(.rel.text.*)
 *(.rel.gnu.linkonce.t*)

.rela.text
 *(.rela.text)
 *(.rela.text.*)
 *(.rela.gnu.linkonce.t*)

.rel.fini
 *(.rel.fini)

.rela.fini
 *(.rela.fini)

.rel.rodata
 *(.rel.rodata)
 *(.rel.rodata.*)
 *(.rel.gnu.linkonce.r*)

.rela.rodata
 *(.rela.rodata)
 *(.rela.rodata.*)
 *(.rela.gnu.linkonce.r*)

.rel.data
 *(.rel.data)
 *(.rel.data.*)
 *(.rel.gnu.linkonce.d*)

.rela.data
 *(.rela.data)
 *(.rela.data.*)
 *(.rela.gnu.linkonce.d*)

.rel.ctors
 *(.rel.ctors)

.rela.ctors
 *(.rela.ctors)

.rel.dtors
 *(.rel.dtors)

.rela.dtors
 *(.rela.dtors)

.rel.got
 *(.rel.got)

.rela.got
 *(.rela.got)

.rel.bss
 *(.rel.bss)

.rela.bss
 *(.rela.bss)

.rel.plt
 *(.rel.plt)

.rela.plt
 *(.rela.plt)

.text           0x00000000     0xff62
 *(.vectors)
 .vectors       0x00000000      0x1fc c:/program files/avr8-gnu-toolchain-win32_x86/bin/../lib/gcc/avr/5.4.0/../../../../avr/lib/avrxmega7/crtatxmega128a4u.o
                0x00000000                __vectors
 *(.vectors)
 *(.progmem.gcc*)
                0x000001fc                . = ALIGN (0x2)
                0x000001fc                __trampolines_start = .
 *(.trampolines)
 .trampolines   0x000001fc        0x0 linker stubs
 *(.trampolines*)
                0x000001fc                __trampolines_end = .
 *libprintf_flt.a:*(.progmem.data)
 *libc.a:*(.progmem.data)
 .progmem.data  0x000001fc        0xc c:/program files/avr8-gnu-toolchain-win32_x86/bin/../lib/gcc/avr/5.4.0/../../../../avr/lib/avrxmega7\libc.a(vfscanf_std.o)
 *(.progmem*)
 .progmem.data  0x00000208       0xa0 Bin/LUFADescriptors.o
                0x00000208                ProductString
                0x00000228                ManufacturerString
                0x00000254                LanguageString
                0x00000258                ConfigurationDescriptor
                0x00000296                DeviceDescriptor
 .progmem.data  0x000002a8      0x44e Bin/Configuration.o
 .progmem.data  0x000006f6      0x200 Bin/Common.o
                0x000006f6                OddParityByteTable
                0x000007f6                BitReverseByteTable
 .progmem.data  0x000008f6      0x1ad Bin/Button.o
 .progmem.data  0x00000aa3       0x63 Bin/Log.o
 .progmem.data  0x00000b06      0x16b Bin/LED.o
 .progmem.data  0x00000c71      0x1b0 Bin/Commands.o
 .progmem.data  0x00000e21      0x52b Bin/CommandLine.o
                0x00000f5c                CommandTable
 .progmem.data  0x0000134c      0x68f Bin/Reader14443A.o
                0x000019dc                . = ALIGN (0x2)
 *fill*         0x000019db        0x1 
 *(.jumptables)
 *(.jumptables*)
 *(.lowtext)
 *(.lowtext*)
                0x000019dc                __ctors_start = .
 *(.ctors)
                0x000019dc                __ctors_end = .
                0x000019dc                __dtors_start = .
 *(.dtors)
                0x000019dc                __dtors_end = .
 SORT(*)(.ctors)
 SORT(*)(.dtors)
 *(.init0)
 .init0         0x000019dc        0x0 c:/program files/avr8-gnu-toolchain-win32_x86/bin/../lib/gcc/avr/5.4.0/../../../../avr/lib/avrxmega7/crtatxmega128a4u.o
                0x000019dc                __init
 *(.init0)
 *(.init1)
 *(.init1)
 *(.init2)
 .init2         0x000019dc       0x18 c:/program files/avr8-gnu-toolchain-win32_x86/bin/../lib/gcc/avr/5.4.0/../../../../avr/lib/avrxmega7/crtatxmega128a4u.o
 *(.init2)
 *(.init3)
 *(.init3)
 *(.init4)
 .init4         0x000019f4       0x1c c:/program files/avr8-gnu-toolchain-win32_x86/bin/../lib/gcc/avr/5.4.0/avrxmega7\libgcc.a(_copy_data.o)
                0x000019f4                __do_copy_data
 .init4         0x00001a10       0x10 c:/program files/avr8-gnu-toolchain-win32_x86/bin/../lib/gcc/avr/5.4.0/avrxmega7\libgcc.a(_clear_bss.o)
                0x00001a10                __do_clear_bss
 *(.init4)
 *(.init5)
 *(.init5)
 *(.init6)
 *(.init6)
 *(.init7)
 *(.init7)
 *(.init8)
 *(.init8)
 *(.init9)
 .init9         0x00001a20        0x6 c:/program files/avr8-gnu-toolchain-win32_x86/bin/../lib/gcc/avr/5.4.0/../../../../avr/lib/avrxmega7/crtatxmega128a4u.o
 *(.init9)
 *(.text)
 .text          0x00001a26        0x2 c:/program files/avr8-gnu-toolchain-win32_x86/bin/../lib/gcc/avr/5.4.0/../../../../avr/lib/avrxmega7/crtatxmega128a4u.o
                0x00001a26                __vector_38
                0x00001a26                __vector_104
                0x00001a26                __vector_22
                0x00001a26                __vector_63
                0x00001a26                __vector_28
                0x00001a26                __vector_67
                0x00001a26                __vector_1
                0x00001a26                __vector_119
                0x00001a26                __vector_32
                0x00001a26                __vector_75
                0x00001a26                __vector_71
                0x00001a26                __vector_91
                0x00001a26                __vector_62
                0x00001a26                __vector_77
                0x00001a26                __vector_102
                0x00001a26                __vector_24
                0x00001a26                __vector_12
                0x00001a26                __vector_55
                0x00001a26                __vector_90
                0x00001a26                __vector_46
                0x00001a26                __bad_interrupt
                0x00001a26                __vector_122
                0x00001a26                __vector_72
                0x00001a26                __vector_114
                0x00001a26                __vector_6
                0x00001a26                __vector_110
                0x00001a26                __vector_31
                0x00001a26                __vector_92
                0x00001a26                __vector_78
                0x00001a26                __vector_74
                0x00001a26                __vector_117
                0x00001a26                __vector_39
                0x00001a26                __vector_107
                0x00001a26                __vector_3
                0x00001a26                __vector_105
                0x00001a26                __vector_98
                0x00001a26                __vector_23
                0x00001a26                __vector_30
                0x00001a26                __vector_73
                0x00001a26                __vector_45
                0x00001a26                __vector_25
                0x00001a26                __vector_93
                0x00001a26                __vector_61
                0x00001a26                __vector_11
                0x00001a26                __vector_54
                0x00001a26                __vector_99
                0x00001a26                __vector_13
                0x00001a26                __vector_17
                0x00001a26                __vector_19
                0x00001a26                __vector_56
                0x00001a26                __vector_7
                0x00001a26                __vector_123
                0x00001a26                __vector_41
                0x00001a26                __vector_100
                0x00001a26                __vector_101
                0x00001a26                __vector_64
                0x00001a26                __vector_88
                0x00001a26                __vector_109
                0x00001a26                __vector_43
                0x00001a26                __vector_27
                0x00001a26                __vector_5
                0x00001a26                __vector_113
                0x00001a26                __vector_33
                0x00001a26                __vector_76
                0x00001a26                __vector_115
                0x00001a26                __vector_52
                0x00001a26                __vector_37
                0x00001a26                __vector_95
                0x00001a26                __vector_103
                0x00001a26                __vector_96
                0x00001a26                __vector_89
                0x00001a26                __vector_108
                0x00001a26                __vector_4
                0x00001a26                __vector_44
                0x00001a26                __vector_106
                0x00001a26                __vector_118
                0x00001a26                __vector_51
                0x00001a26                __vector_9
                0x00001a26                __vector_2
                0x00001a26                __vector_21
                0x00001a26                __vector_15
                0x00001a26                __vector_66
                0x00001a26                __vector_36
                0x00001a26                __vector_58
                0x00001a26                __vector_70
                0x00001a26                __vector_83
                0x00001a26                __vector_29
                0x00001a26                __vector_60
                0x00001a26                __vector_121
                0x00001a26                __vector_40
                0x00001a26                __vector_94
                0x00001a26                __vector_126
                0x00001a26                __vector_8
                0x00001a26                __vector_26
                0x00001a26                __vector_48
                0x00001a26                __vector_124
                0x00001a26                __vector_116
                0x00001a26                __vector_112
                0x00001a26                __vector_111
                0x00001a26                __vector_14
                0x00001a26                __vector_84
                0x00001a26                __vector_57
                0x00001a26                __vector_53
                0x00001a26                __vector_16
                0x00001a26                __vector_59
                0x00001a26                __vector_18
                0x00001a26                __vector_97
                0x00001a26                __vector_20
                0x00001a26                __vector_42
                0x00001a26                __vector_87
                0x00001a26                __vector_65
                0x00001a26                __vector_120
 .text          0x00001a28       0x28 Bin/ISRSharing.o
                0x00001a28                __vector_34
                0x00001a3c                __vector_81
 .text          0x00001a50       0x70 Bin/MemoryAsm.o
                0x00001a50                FlashReadWord
                0x00001a5e                FlashEraseApplicationPage
                0x00001a6a                FlashLoadFlashWord
                0x00001a74                FlashEraseWriteApplicationPage
                0x00001a80                FlashEraseFlashBuffer
                0x00001a86                FlashWaitForSPM
 .text          0x00001ac0       0x86 Bin/Reader14443-ISR.o
                0x00001ac0                __vector_80
 .text          0x00001b46      0x282 Bin/CryptoTDEA.o
                0x00001be8                CryptoDecrypt2KTDEA
                0x00001c36                CryptoEncrypt2KTDEA
                0x00001da4                CryptoEncrypt2KTDEA_CBCSend
                0x00001daa                CryptoEncrypt2KTDEA_CBCReceive
                0x00001db0                CryptoDecrypt2KTDEA_CBCSend
                0x00001db6                CryptoDecrypt2KTDEA_CBCReceive
                0x00001dbc                CryptoEncrypt3KTDEA_CBCSend
                0x00001dc2                CryptoEncrypt3KTDEA_CBCReceive
                0x00001dc8                . = ALIGN (0x2)
 *(.text.*)
 .text.startup.main
                0x00001dc8      0x184 Bin/Chameleon-Mini.o
                0x00001dc8                main
 .text.CALLBACK_USB_GetDescriptor
                0x00001f4c       0x60 Bin/LUFADescriptors.o
                0x00001f4c                CALLBACK_USB_GetDescriptor
 .text.__vector_default
                0x00001fac       0x12 Bin/System.o
                0x00001fac                __vector_default
 .text.__vector_10
                0x00001fbe       0x32 Bin/System.o
                0x00001fbe                __vector_10
 .text.SystemInit
                0x00001ff0       0x84 Bin/System.o
                0x00001ff0                SystemInit
 .text.SystemReset
                0x00002074        0xc Bin/System.o
                0x00002074                SystemReset
 .text.SystemEnterBootloader
                0x00002080        0xc Bin/System.o
                0x00002080                SystemEnterBootloader
 .text.SystemStartUSBClock
                0x0000208c       0x5c Bin/System.o
                0x0000208c                SystemStartUSBClock
 .text.SystemStopUSBClock
                0x000020e8       0x20 Bin/System.o
                0x000020e8                SystemStopUSBClock
 .text.SystemInterruptInit
                0x00002108        0xa Bin/System.o
                0x00002108                SystemInterruptInit
 .text.ApplicationTickDummy
                0x00002112        0x2 Bin/Configuration.o
 .text.ApplicationProcessDummy
                0x00002114        0x6 Bin/Configuration.o
 .text.ApplicationSetUidDummy
                0x0000211a        0x2 Bin/Configuration.o
 .text.ApplicationGetUidDummy
                0x0000211c        0x2 Bin/Configuration.o
 .text.CodecInitDummy
                0x0000211e        0x2 Bin/Configuration.o
 .text.CodecDeInitDummy
                0x00002120        0x2 Bin/Configuration.o
 .text.CodecTaskDummy
                0x00002122        0x2 Bin/Configuration.o
 .text.ApplicationInitDummy
                0x00002124        0x2 Bin/Configuration.o
 .text.ApplicationResetDummy
                0x00002126        0x2 Bin/Configuration.o
 .text.ApplicationTaskDummy
                0x00002128        0x2 Bin/Configuration.o
 .text.ConfigurationSetById
                0x0000212a       0x56 Bin/Configuration.o
                0x0000212a                ConfigurationSetById
 .text.ConfigurationInit
                0x00002180       0x1c Bin/Configuration.o
                0x00002180                ConfigurationInit
 .text.ConfigurationGetByName
                0x0000219c       0x22 Bin/Configuration.o
                0x0000219c                ConfigurationGetByName
 .text.ConfigurationSetByName
                0x000021be       0x5c Bin/Configuration.o
                0x000021be                ConfigurationSetByName
 .text.ConfigurationGetList
                0x0000221a        0xe Bin/Configuration.o
                0x0000221a                ConfigurationGetList
 .text.RandomInit
                0x00002228        0x2 Bin/Random.o
                0x00002228                RandomInit
 .text.RandomGetByte
                0x0000222a        0x6 Bin/Random.o
                0x0000222a                RandomGetByte
 .text.RandomGetBuffer
                0x00002230       0x24 Bin/Random.o
                0x00002230                RandomGetBuffer
 .text.RandomTick
                0x00002254       0x10 Bin/Random.o
                0x00002254                RandomTick
 .text.BufferToHexString
                0x00002264       0x56 Bin/Common.o
                0x00002264                BufferToHexString
 .text.HexStringToBuffer
                0x000022ba       0x74 Bin/Common.o
                0x000022ba                HexStringToBuffer
 .text.MemoryInit
                0x0000232e       0x60 Bin/Memory.o
                0x0000232e                MemoryInit
 .text.MemoryReadBlock
                0x0000238e       0x9c Bin/Memory.o
                0x0000238e                MemoryReadBlock
 .text.MemoryWriteBlock
                0x0000242a       0xdc Bin/Memory.o
                0x0000242a                MemoryWriteBlock
 .text.MemoryRecall
                0x00002506       0xea Bin/Memory.o
                0x00002506                MemoryRecall
 .text.MemoryClear
                0x000025f0       0x60 Bin/Memory.o
                0x000025f0                MemoryClear
 .text.MemoryStore
                0x00002650      0x12e Bin/Memory.o
                0x00002650                MemoryStore
 .text.MemoryUploadBlock
                0x0000277e      0x100 Bin/Memory.o
                0x0000277e                MemoryUploadBlock
 .text.MemoryDownloadBlock
                0x0000287e       0xe4 Bin/Memory.o
                0x0000287e                MemoryDownloadBlock
 .text.WaitForNVM
                0x00002962        0xa Bin/Memory.o
                0x00002962                WaitForNVM
 .text.FlushNVMBuffer
                0x0000296c       0x22 Bin/Memory.o
                0x0000296c                FlushNVMBuffer
 .text.ReadEEPBlock
                0x0000298e       0x62 Bin/Memory.o
                0x0000298e                ReadEEPBlock
 .text.WriteEEPBlock
                0x000029f0       0xd6 Bin/Memory.o
                0x000029f0                WriteEEPBlock
 .text.ExecuteButtonAction
                0x00002ac6      0x23e Bin/Button.o
 .text.ButtonInit
                0x00002d04       0x10 Bin/Button.o
                0x00002d04                ButtonInit
 .text.ButtonTick
                0x00002d14       0x9a Bin/Button.o
                0x00002d14                ButtonTick
 .text.ButtonGetActionList
                0x00002dae        0xc Bin/Button.o
                0x00002dae                ButtonGetActionList
 .text.ButtonSetActionById
                0x00002dba       0x16 Bin/Button.o
                0x00002dba                ButtonSetActionById
 .text.ButtonGetActionByName
                0x00002dd0       0x24 Bin/Button.o
                0x00002dd0                ButtonGetActionByName
 .text.ButtonSetActionByName
                0x00002df4       0x3a Bin/Button.o
                0x00002df4                ButtonSetActionByName
 .text.LogFuncOff
                0x00002e2e        0x2 Bin/Log.o
 .text.LogFuncLive
                0x00002e30       0x58 Bin/Log.o
 .text.LogTask  0x00002e88        0x2 Bin/Log.o
                0x00002e88                LogTask
 .text.LogMemLoadBlock
                0x00002e8a      0x12a Bin/Log.o
                0x00002e8a                LogMemLoadBlock
 .text.LogMemClear
                0x00002fb4       0x78 Bin/Log.o
                0x00002fb4                LogMemClear
 .text.LogMemFree
                0x0000302c       0x18 Bin/Log.o
                0x0000302c                LogMemFree
 .text.LogSetModeById
                0x00003044       0x42 Bin/Log.o
                0x00003044                LogSetModeById
 .text.LogInit  0x00003086       0xb6 Bin/Log.o
                0x00003086                LogInit
 .text.LogFuncMemory
                0x0000313c       0xb0 Bin/Log.o
 .text.LogSetModeByName
                0x000031ec       0x32 Bin/Log.o
                0x000031ec                LogSetModeByName
 .text.LogGetModeByName
                0x0000321e       0x20 Bin/Log.o
                0x0000321e                LogGetModeByName
 .text.LogGetModeList
                0x0000323e        0xc Bin/Log.o
                0x0000323e                LogGetModeList
 .text.LogSRAMToFRAM
                0x0000324a      0x10c Bin/Log.o
                0x0000324a                LogSRAMToFRAM
 .text.LogTick  0x00003356        0xa Bin/Log.o
                0x00003356                LogTick
 .text.SettingsLoad
                0x00003360        0xe Bin/Settings.o
                0x00003360                SettingsLoad
 .text.SettingsSave
                0x0000336e        0xe Bin/Settings.o
                0x0000336e                SettingsSave
 .text.SettingsSetActiveById
                0x0000337c       0xb0 Bin/Settings.o
                0x0000337c                SettingsSetActiveById
 .text.SettingsCycle
                0x0000342c       0x34 Bin/Settings.o
                0x0000342c                SettingsCycle
 .text.SettingsGetActiveByName
                0x00003460        0xe Bin/Settings.o
                0x00003460                SettingsGetActiveByName
 .text.SettingsSetActiveByName
                0x0000346e       0x2a Bin/Settings.o
                0x0000346e                SettingsSetActiveByName
 .text.LEDInit  0x00003498        0x8 Bin/LED.o
                0x00003498                LEDInit
 .text.LEDTick  0x000034a0       0xfe Bin/LED.o
                0x000034a0                LEDTick
 .text.LEDGetFuncList
                0x0000359e        0xc Bin/LED.o
                0x0000359e                LEDGetFuncList
 .text.LEDSetFuncById
                0x000035aa       0x3a Bin/LED.o
                0x000035aa                LEDSetFuncById
 .text.LEDGetFuncByName
                0x000035e4       0x34 Bin/LED.o
                0x000035e4                LEDGetFuncByName
 .text.LEDSetFuncByName
                0x00003618       0x3a Bin/LED.o
                0x00003618                LEDSetFuncByName
 .text.MapIdToText
                0x00003652       0x30 Bin/Map.o
                0x00003652                MapIdToText
 .text.MapTextToId
                0x00003682       0x4e Bin/Map.o
                0x00003682                MapTextToId
 .text.MapToString
                0x000036d0       0x4a Bin/Map.o
                0x000036d0                MapToString
 .text.AntennaLevelTick
                0x0000371a       0x8a Bin/AntennaLevel.o
                0x0000371a                AntennaLevelTick
 .text.TerminalSendString
                0x000037a4        0xa Bin/Terminal.o
                0x000037a4                TerminalSendString
 .text.TerminalSendStringP
                0x000037ae       0x22 Bin/Terminal.o
                0x000037ae                TerminalSendStringP
 .text.TerminalSendBlock
                0x000037d0        0xc Bin/Terminal.o
                0x000037d0                TerminalSendBlock
 .text.TerminalInit
                0x000037dc        0x8 Bin/Terminal.o
                0x000037dc                TerminalInit
 .text.TerminalTask
                0x000037e4       0x5e Bin/Terminal.o
                0x000037e4                TerminalTask
 .text.TerminalTick
                0x00003842       0x80 Bin/Terminal.o
                0x00003842                TerminalTick
 .text.EVENT_USB_Device_Connect
                0x000038c2       0x22 Bin/Terminal.o
                0x000038c2                EVENT_USB_Device_Connect
 .text.EVENT_USB_Device_Disconnect
                0x000038e4       0x22 Bin/Terminal.o
                0x000038e4                EVENT_USB_Device_Disconnect
 .text.EVENT_USB_Device_ConfigurationChanged
                0x00003906        0x8 Bin/Terminal.o
                0x00003906                EVENT_USB_Device_ConfigurationChanged
 .text.EVENT_USB_Device_ControlRequest
                0x0000390e        0x8 Bin/Terminal.o
                0x0000390e                EVENT_USB_Device_ControlRequest
 .text.CommandGetVersion
                0x00003916       0x44 Bin/Commands.o
                0x00003916                CommandGetVersion
 .text.CommandGetConfig
                0x0000395a        0xc Bin/Commands.o
                0x0000395a                CommandGetConfig
 .text.CommandSetConfig
                0x00003966       0x44 Bin/Commands.o
                0x00003966                CommandSetConfig
 .text.CommandGetUid
                0x000039aa       0x7e Bin/Commands.o
                0x000039aa                CommandGetUid
 .text.CommandSetUid
                0x00003a28       0xb2 Bin/Commands.o
                0x00003a28                CommandSetUid
 .text.CommandGetReadOnly
                0x00003ada       0x18 Bin/Commands.o
                0x00003ada                CommandGetReadOnly
 .text.CommandSetReadOnly
                0x00003af2       0x5a Bin/Commands.o
                0x00003af2                CommandSetReadOnly
 .text.CommandExecUpload
                0x00003b4c        0xa Bin/Commands.o
                0x00003b4c                CommandExecUpload
 .text.CommandExecDownload
                0x00003b56        0xa Bin/Commands.o
                0x00003b56                CommandExecDownload
 .text.CommandExecReset
                0x00003b60       0x16 Bin/Commands.o
                0x00003b60                CommandExecReset
 .text.CommandExecUpgrade
                0x00003b76       0x16 Bin/Commands.o
                0x00003b76                CommandExecUpgrade
 .text.CommandGetMemSize
                0x00003b8c       0x30 Bin/Commands.o
                0x00003b8c                CommandGetMemSize
 .text.CommandGetUidSize
                0x00003bbc       0x2c Bin/Commands.o
                0x00003bbc                CommandGetUidSize
 .text.CommandGetRButton
                0x00003be8        0xe Bin/Commands.o
                0x00003be8                CommandGetRButton
 .text.CommandSetRButton
                0x00003bf6       0x2a Bin/Commands.o
                0x00003bf6                CommandSetRButton
 .text.CommandGetRButtonLong
                0x00003c20        0xe Bin/Commands.o
                0x00003c20                CommandGetRButtonLong
 .text.CommandSetRButtonLong
                0x00003c2e       0x2a Bin/Commands.o
                0x00003c2e                CommandSetRButtonLong
 .text.CommandGetLButton
                0x00003c58        0xe Bin/Commands.o
                0x00003c58                CommandGetLButton
 .text.CommandSetLButton
                0x00003c66       0x2a Bin/Commands.o
                0x00003c66                CommandSetLButton
 .text.CommandGetLButtonLong
                0x00003c90        0xe Bin/Commands.o
                0x00003c90                CommandGetLButtonLong
 .text.CommandSetLButtonLong
                0x00003c9e       0x2a Bin/Commands.o
                0x00003c9e                CommandSetLButtonLong
 .text.CommandGetLedGreen
                0x00003cc8        0xe Bin/Commands.o
                0x00003cc8                CommandGetLedGreen
 .text.CommandSetLedGreen
                0x00003cd6       0x2a Bin/Commands.o
                0x00003cd6                CommandSetLedGreen
 .text.CommandGetLedRed
                0x00003d00        0xe Bin/Commands.o
                0x00003d00                CommandGetLedRed
 .text.CommandSetLedRed
                0x00003d0e       0x2a Bin/Commands.o
                0x00003d0e                CommandSetLedRed
 .text.CommandGetLogMode
                0x00003d38        0xa Bin/Commands.o
                0x00003d38                CommandGetLogMode
 .text.CommandSetLogMode
                0x00003d42       0x2a Bin/Commands.o
                0x00003d42                CommandSetLogMode
 .text.CommandGetLogMem
                0x00003d6c       0x4a Bin/Commands.o
                0x00003d6c                CommandGetLogMem
 .text.CommandExecLogDownload
                0x00003db6        0xa Bin/Commands.o
                0x00003db6                CommandExecLogDownload
 .text.CommandExecStoreLog
                0x00003dc0        0x6 Bin/Commands.o
                0x00003dc0                CommandExecStoreLog
 .text.CommandExecLogClear
                0x00003dc6        0x6 Bin/Commands.o
                0x00003dc6                CommandExecLogClear
 .text.CommandGetSetting
                0x00003dcc        0xa Bin/Commands.o
                0x00003dcc                CommandGetSetting
 .text.CommandSetSetting
                0x00003dd6       0x10 Bin/Commands.o
                0x00003dd6                CommandSetSetting
 .text.CommandExecClear
                0x00003de6        0x8 Bin/Commands.o
                0x00003de6                CommandExecClear
 .text.CommandExecStore
                0x00003dee        0x8 Bin/Commands.o
                0x00003dee                CommandExecStore
 .text.CommandExecRecall
                0x00003df6        0x8 Bin/Commands.o
                0x00003df6                CommandExecRecall
 .text.CommandGetCharging
                0x00003dfe       0x10 Bin/Commands.o
                0x00003dfe                CommandGetCharging
 .text.CommandExecHelp
                0x00003e0e       0x78 Bin/Commands.o
                0x00003e0e                CommandExecHelp
 .text.CommandGetRssi
                0x00003e86       0x66 Bin/Commands.o
                0x00003e86                CommandGetRssi
 .text.CommandGetSysTick
                0x00003eec       0x38 Bin/Commands.o
                0x00003eec                CommandGetSysTick
 .text.CommandExecParamSend
                0x00003f24      0x114 Bin/Commands.o
                0x00003f24                CommandExecParamSend
 .text.CommandExecParamSendRaw
                0x00004038      0x13e Bin/Commands.o
                0x00004038                CommandExecParamSendRaw
 .text.CommandExecDumpMFU
                0x00004176       0x3a Bin/Commands.o
                0x00004176                CommandExecDumpMFU
 .text.CommandExecCloneMFU
                0x000041b0       0x2e Bin/Commands.o
                0x000041b0                CommandExecCloneMFU
 .text.CommandExecGetUid
                0x000041de       0x3a Bin/Commands.o
                0x000041de                CommandExecGetUid
 .text.CommandExecIdentifyCard
                0x00004218       0x3a Bin/Commands.o
                0x00004218                CommandExecIdentifyCard
 .text.CommandGetTimeout
                0x00004252       0x40 Bin/Commands.o
                0x00004252                CommandGetTimeout
 .text.CommandSetTimeout
                0x00004292       0xa6 Bin/Commands.o
                0x00004292                CommandSetTimeout
 .text.CommandGetThreshold
                0x00004338       0x34 Bin/Commands.o
                0x00004338                CommandGetThreshold
 .text.CommandSetThreshold
                0x0000436c       0xaa Bin/Commands.o
                0x0000436c                CommandSetThreshold
 .text.CommandSetField
                0x00004416       0x54 Bin/Commands.o
                0x00004416                CommandSetField
 .text.CommandGetField
                0x0000446a       0x28 Bin/Commands.o
                0x0000446a                CommandGetField
 .text.CommandExecAutocalibrate
                0x00004492       0x58 Bin/Commands.o
                0x00004492                CommandExecAutocalibrate
 .text.CommandExecClone
                0x000044ea       0x2e Bin/Commands.o
                0x000044ea                CommandExecClone
 .text.CommandTest
                0x00004518       0x26 Bin/Commands.o
                0x00004518                CommandTest
 .text.XModemReceive
                0x0000453e       0x36 Bin/XModem.o
                0x0000453e                XModemReceive
 .text.XModemSend
                0x00004574       0x2c Bin/XModem.o
                0x00004574                XModemSend
 .text.XModemProcessByte
                0x000045a0      0x2a0 Bin/XModem.o
                0x000045a0                XModemProcessByte
 .text.XModemTick
                0x00004840       0x76 Bin/XModem.o
                0x00004840                XModemTick
 .text.GetStatusMessageP
                0x000048b6       0x32 Bin/CommandLine.o
 .text.CallCommandFunc
                0x000048e8       0x72 Bin/CommandLine.o
 .text.CommandExecute
                0x0000495a       0x40 Bin/CommandLine.o
                0x0000495a                CommandExecute
 .text.CommandLineProcessByte
                0x0000499a      0x18e Bin/CommandLine.o
                0x0000499a                CommandLineProcessByte
 .text.CommandLineTick
                0x00004b28       0x70 Bin/CommandLine.o
                0x00004b28                CommandLineTick
 .text.CommandLinePendingTaskBreak
                0x00004b98       0x34 Bin/CommandLine.o
                0x00004b98                CommandLinePendingTaskBreak
 .text.CommandLinePendingTaskFinished
                0x00004bcc       0x3c Bin/CommandLine.o
                0x00004bcc                CommandLinePendingTaskFinished
 .text.CommandLineAppendData
                0x00004c08       0xa4 Bin/CommandLine.o
                0x00004c08                CommandLineAppendData
 .text.CodecReaderFieldStart
                0x00004cac       0x4c Bin/Codec.o
                0x00004cac                CodecReaderFieldStart
 .text.CodecReaderFieldStop
                0x00004cf8       0x12 Bin/Codec.o
                0x00004cf8                CodecReaderFieldStop
 .text.CodecIsReaderFieldReady
                0x00004d0a       0x48 Bin/Codec.o
                0x00004d0a                CodecIsReaderFieldReady
 .text.CodecIsReaderToBeRestarted
                0x00004d52       0x40 Bin/Codec.o
                0x00004d52                CodecIsReaderToBeRestarted
 .text.CodecThresholdSet
                0x00004d92       0x16 Bin/Codec.o
                0x00004d92                CodecThresholdSet
 .text.CodecThresholdIncrement
                0x00004da8       0x20 Bin/Codec.o
                0x00004da8                CodecThresholdIncrement
 .text.CodecThresholdReset
                0x00004dc8       0x1a Bin/Codec.o
                0x00004dc8                CodecThresholdReset
 .text.StartDemod
                0x00004de2       0x5c Bin/ISO14443-2A.o
 .text.isr_ISO14443_2A_TCD0_CCC_vect
                0x00004e3e       0x70 Bin/ISO14443-2A.o
                0x00004e3e                isr_ISO14443_2A_TCD0_CCC_vect
 .text.__vector_79
                0x00004eae      0x12e Bin/ISO14443-2A.o
                0x00004eae                __vector_79
 .text.__vector_47
                0x00004fdc      0x182 Bin/ISO14443-2A.o
                0x00004fdc                __vector_47
 .text.ISO14443ACodecInit
                0x0000515e      0x102 Bin/ISO14443-2A.o
                0x0000515e                ISO14443ACodecInit
 .text.ISO14443ACodecDeInit
                0x00005260       0x3e Bin/ISO14443-2A.o
                0x00005260                ISO14443ACodecDeInit
 .text.ISO14443ACodecTask
                0x0000529e      0x122 Bin/ISO14443-2A.o
                0x0000529e                ISO14443ACodecTask
 .text.isr_Reader14443_2A_TCD0_CCC_vect
                0x000053c0       0x94 Bin/Reader14443-2A.o
                0x000053c0                isr_Reader14443_2A_TCD0_CCC_vect
 .text.Reader14443ACodecInit
                0x00005454      0x110 Bin/Reader14443-2A.o
                0x00005454                Reader14443ACodecInit
 .text.Reader14443ACodecDeInit
                0x00005564       0x24 Bin/Reader14443-2A.o
                0x00005564                Reader14443ACodecDeInit
 .text.Reader14443AMillerEOC
                0x00005588       0x24 Bin/Reader14443-2A.o
                0x00005588                Reader14443AMillerEOC
 .text.__vector_85
                0x000055ac      0x112 Bin/Reader14443-2A.o
                0x000055ac                __vector_85
 .text.__vector_69
                0x000056be       0x4a Bin/Reader14443-2A.o
                0x000056be                __vector_69
 .text.__vector_49
                0x00005708      0x138 Bin/Reader14443-2A.o
                0x00005708                __vector_49
 .text.Reader14443ACodecTask
                0x00005840      0x616 Bin/Reader14443-2A.o
                0x00005840                Reader14443ACodecTask
 .text.Reader14443ACodecStart
                0x00005e56        0xe Bin/Reader14443-2A.o
                0x00005e56                Reader14443ACodecStart
 .text.Reader14443ACodecReset
                0x00005e64       0xda Bin/Reader14443-2A.o
                0x00005e64                Reader14443ACodecReset
 .text.isr_SniffISO14443_2A_CODEC_TIMER_LOADMOD_CCB_VECT
                0x00005f3e      0x16c Bin/SniffISO14443-2A.o
                0x00005f3e                isr_SniffISO14443_2A_CODEC_TIMER_LOADMOD_CCB_VECT
 .text.__vector_35
                0x000060aa       0x58 Bin/SniffISO14443-2A.o
                0x000060aa                __vector_35
 .text.__vector_82
                0x00006102      0x236 Bin/SniffISO14443-2A.o
                0x00006102                __vector_82
 .text.__vector_68
                0x00006338       0x4e Bin/SniffISO14443-2A.o
                0x00006338                __vector_68
 .text.__vector_50
                0x00006386       0x6c Bin/SniffISO14443-2A.o
                0x00006386                __vector_50
 .text.__vector_86
                0x000063f2      0x174 Bin/SniffISO14443-2A.o
                0x000063f2                __vector_86
 .text.Sniff14443ACodecInit
                0x00006566      0x17e Bin/SniffISO14443-2A.o
                0x00006566                Sniff14443ACodecInit
 .text.Sniff14443ACodecDeInit
                0x000066e4       0x42 Bin/SniffISO14443-2A.o
                0x000066e4                Sniff14443ACodecDeInit
 .text.Sniff14443ACodecTask
                0x00006726      0x19a Bin/SniffISO14443-2A.o
                0x00006726                Sniff14443ACodecTask
 .text.VerifyAuthentication
                0x000068c0       0x24 Bin/MifareUltralight.o
 .text.AppInitEV1Common
                0x000068e4       0x6e Bin/MifareUltralight.o
 .text.IncrementCounter
                0x00006952       0x84 Bin/MifareUltralight.o
 .text.MifareUltralightCAppInit
                0x000069d6       0xec Bin/MifareUltralight.o
                0x000069d6                MifareUltralightCAppInit
 .text.MifareUltralightAppInit
                0x00006ac2       0x28 Bin/MifareUltralight.o
                0x00006ac2                MifareUltralightAppInit
 .text.MifareUltralightEV11AppInit
                0x00006aea        0x8 Bin/MifareUltralight.o
                0x00006aea                MifareUltralightEV11AppInit
 .text.MifareUltralightEV12AppInit
                0x00006af2        0x8 Bin/MifareUltralight.o
                0x00006af2                MifareUltralightEV12AppInit
 .text.MifareUltralightAppReset
                0x00006afa        0x8 Bin/MifareUltralight.o
                0x00006afa                MifareUltralightAppReset
 .text.MifareUltralightCAppReset
                0x00006b02        0xc Bin/MifareUltralight.o
                0x00006b02                MifareUltralightCAppReset
 .text.MifareUltralightAppTask
                0x00006b0e        0x2 Bin/MifareUltralight.o
                0x00006b0e                MifareUltralightAppTask
 .text.MifareUltralightAppProcess
                0x00006b10      0x81e Bin/MifareUltralight.o
                0x00006b10                MifareUltralightAppProcess
 .text.MifareUltralightGetUid
                0x0000732e       0x26 Bin/MifareUltralight.o
                0x0000732e                MifareUltralightGetUid
 .text.MifareUltralightSetUid
                0x00007354       0x80 Bin/MifareUltralight.o
                0x00007354                MifareUltralightSetUid
 .text.MifareClassicAppInitMini4B
                0x000073d4       0x1e Bin/MifareClassic.o
                0x000073d4                MifareClassicAppInitMini4B
 .text.MifareClassicAppInit1K
                0x000073f2       0x1e Bin/MifareClassic.o
                0x000073f2                MifareClassicAppInit1K
 .text.MifareClassicAppInit1K7B
                0x00007410       0x1e Bin/MifareClassic.o
                0x00007410                MifareClassicAppInit1K7B
 .text.MifareClassicAppInit4K
                0x0000742e       0x1e Bin/MifareClassic.o
                0x0000742e                MifareClassicAppInit4K
 .text.MifareClassicAppInit4K7B
                0x0000744c       0x1e Bin/MifareClassic.o
                0x0000744c                MifareClassicAppInit4K7B
 .text.MifareClassicAppReset
                0x0000746a        0x8 Bin/MifareClassic.o
                0x0000746a                MifareClassicAppReset
 .text.MifareClassicAppTask
                0x00007472        0x2 Bin/MifareClassic.o
                0x00007472                MifareClassicAppTask
 .text.MifareClassicAppProcess
                0x00007474      0xdc2 Bin/MifareClassic.o
                0x00007474                MifareClassicAppProcess
 .text.MifareClassicGetUid
                0x00008236       0x38 Bin/MifareClassic.o
                0x00008236                MifareClassicGetUid
 .text.MifareClassicSetUid
                0x0000826e       0x52 Bin/MifareClassic.o
                0x0000826e                MifareClassicSetUid
 .text.ISO14443AAppendCRCA
                0x000082c0       0x56 Bin/ISO14443-3A.o
                0x000082c0                ISO14443AAppendCRCA
 .text.ISO14443ACheckCRCA
                0x00008316       0x62 Bin/ISO14443-3A.o
                0x00008316                ISO14443ACheckCRCA
 .text.Crypto1Setup
                0x00008378      0x55a Bin/Crypto1.o
                0x00008378                Crypto1Setup
 .text.Crypto1SetupNested
                0x000088d2      0x556 Bin/Crypto1.o
                0x000088d2                Crypto1SetupNested
 .text.Crypto1Auth
                0x00008e28      0x44e Bin/Crypto1.o
                0x00008e28                Crypto1Auth
 .text.Crypto1Nibble
                0x00009276      0x1ea Bin/Crypto1.o
                0x00009276                Crypto1Nibble
 .text.Crypto1ByteArray
                0x00009460      0x432 Bin/Crypto1.o
                0x00009460                Crypto1ByteArray
 .text.Crypto1ByteArrayWithParity
                0x00009892      0x434 Bin/Crypto1.o
                0x00009892                Crypto1ByteArrayWithParity
 .text.Crypto1PRNG
                0x00009cc6      0x10c Bin/Crypto1.o
                0x00009cc6                Crypto1PRNG
 .text.addParityBits
                0x00009dd2       0xdc Bin/Reader14443A.o
                0x00009dd2                addParityBits
 .text.Reader14443A_Deselect
                0x00009eae       0x2a Bin/Reader14443A.o
 .text.removeParityBits
                0x00009ed8       0xa0 Bin/Reader14443A.o
                0x00009ed8                removeParityBits
 .text.checkParityBits
                0x00009f78       0xac Bin/Reader14443A.o
                0x00009f78                checkParityBits
 .text.Reader14443AAppInit
                0x0000a024        0x6 Bin/Reader14443A.o
                0x0000a024                Reader14443AAppInit
 .text.Reader14443AAppReset
                0x0000a02a        0xe Bin/Reader14443A.o
                0x0000a02a                Reader14443AAppReset
 .text.Reader14443AAppTimeout
                0x0000a038        0xc Bin/Reader14443A.o
                0x0000a038                Reader14443AAppTimeout
 .text.Reader14443AAppTask
                0x0000a044        0x2 Bin/Reader14443A.o
                0x0000a044                Reader14443AAppTask
 .text.Reader14443AAppTick
                0x0000a046        0x2 Bin/Reader14443A.o
                0x0000a046                Reader14443AAppTick
 .text.ISO14443_CRCA
                0x0000a048       0x48 Bin/Reader14443A.o
                0x0000a048                ISO14443_CRCA
 .text.Reader14443A_Select
                0x0000a090      0x20a Bin/Reader14443A.o
 .text.Identify
                0x0000a29a      0x2ea Bin/Reader14443A.o
 .text.Reader14443AAppProcess
                0x0000a584      0xab8 Bin/Reader14443A.o
                0x0000a584                Reader14443AAppProcess
 .text.Sniff14443AAppInit
                0x0000b03c       0x1c Bin/Sniff14443A.o
                0x0000b03c                Sniff14443AAppInit
 .text.Sniff14443AAppReset
                0x0000b058        0xa Bin/Sniff14443A.o
                0x0000b058                Sniff14443AAppReset
 .text.Sniff14443AAppTask
                0x0000b062        0x2 Bin/Sniff14443A.o
                0x0000b062                Sniff14443AAppTask
 .text.Sniff14443AAppTick
                0x0000b064        0x2 Bin/Sniff14443A.o
                0x0000b064                Sniff14443AAppTick
 .text.Sniff14443AAppTimeout
                0x0000b066        0x2 Bin/Sniff14443A.o
                0x0000b066                Sniff14443AAppTimeout
 .text.Sniff14443AAppProcess
                0x0000b068      0x276 Bin/Sniff14443A.o
                0x0000b068                Sniff14443AAppProcess
 .text.NFCWritePage
                0x0000b2de       0x22 Bin/NFC_Command.o
 .text.IncrementCounter
                0x0000b300       0x84 Bin/NFC_Command.o
 .text.NFCCommandAppInit
                0x0000b384       0x28 Bin/NFC_Command.o
                0x0000b384                NFCCommandAppInit
 .text.NFCCommandAppReset
                0x0000b3ac        0x8 Bin/NFC_Command.o
                0x0000b3ac                NFCCommandAppReset
 .text.NFCCommandAppTask
                0x0000b3b4        0x2 Bin/NFC_Command.o
                0x0000b3b4                NFCCommandAppTask
 .text.NFCStatusId
                0x0000b3b6       0x8c Bin/NFC_Command.o
                0x0000b3b6                NFCStatusId
 .text.NFCAnswer
                0x0000b442      0x176 Bin/NFC_Command.o
                0x0000b442                NFCAnswer
 .text.NFCCommandAppProcess
                0x0000b5b8      0x47a Bin/NFC_Command.o
                0x0000b5b8                NFCCommandAppProcess
 .text.NTAG215AppInit
                0x0000ba32       0x48 Bin/NTAG215.o
                0x0000ba32                NTAG215AppInit
 .text.NTAG215AppReset
                0x0000ba7a        0x8 Bin/NTAG215.o
                0x0000ba7a                NTAG215AppReset
 .text.NTAG215AppTask
                0x0000ba82        0x2 Bin/NTAG215.o
                0x0000ba82                NTAG215AppTask
 .text.NTAG215AppProcess
                0x0000ba84      0x506 Bin/NTAG215.o
                0x0000ba84                NTAG215AppProcess
 .text.NTAG215GetUid
                0x0000bf8a       0x26 Bin/NTAG215.o
                0x0000bf8a                NTAG215GetUid
 .text.NTAG215SetUid
                0x0000bfb0       0x80 Bin/NTAG215.o
                0x0000bfb0                NTAG215SetUid
 .text.isr_ISO15693_CODEC_DEMOD_IN_INT0_VECT
                0x0000c030       0x44 Bin/ISO15693.o
                0x0000c030                isr_ISO15693_CODEC_DEMOD_IN_INT0_VECT
 .text.isr_ISO15693_CODEC_TIMER_SAMPLING_CCC_VECT
                0x0000c074      0x208 Bin/ISO15693.o
                0x0000c074                isr_ISO15693_CODEC_TIMER_SAMPLING_CCC_VECT
 .text.isr_ISO15693_CODEC_TIMER_LOADMOD_CCB_VECT
                0x0000c27c      0x2bc Bin/ISO15693.o
                0x0000c27c                isr_ISO15693_CODEC_TIMER_LOADMOD_CCB_VECT
 .text.StartISO15693Demod
                0x0000c538       0x86 Bin/ISO15693.o
                0x0000c538                StartISO15693Demod
 .text.ISO15693CodecInit
                0x0000c5be      0x106 Bin/ISO15693.o
                0x0000c5be                ISO15693CodecInit
 .text.ISO15693CodecDeInit
                0x0000c6c4       0x66 Bin/ISO15693.o
                0x0000c6c4                ISO15693CodecDeInit
 .text.ISO15693CodecTask
                0x0000c72a      0x128 Bin/ISO15693.o
                0x0000c72a                ISO15693CodecTask
 .text.VicinityAppInit
                0x0000c852        0x6 Bin/Vicinity.o
                0x0000c852                VicinityAppInit
 .text.VicinityAppReset
                0x0000c858        0x6 Bin/Vicinity.o
                0x0000c858                VicinityAppReset
 .text.VicinityAppTask
                0x0000c85e        0x2 Bin/Vicinity.o
                0x0000c85e                VicinityAppTask
 .text.VicinityAppTick
                0x0000c860        0x2 Bin/Vicinity.o
                0x0000c860                VicinityAppTick
 .text.VicinityAppProcess
                0x0000c862      0x1c8 Bin/Vicinity.o
                0x0000c862                VicinityAppProcess
 .text.VicinityGetUid
                0x0000ca2a        0xe Bin/Vicinity.o
                0x0000ca2a                VicinityGetUid
 .text.VicinitySetUid
                0x0000ca38        0xe Bin/Vicinity.o
                0x0000ca38                VicinitySetUid
 .text.Sl2s2002AppInit
                0x0000ca46        0x6 Bin/Sl2s2002.o
                0x0000ca46                Sl2s2002AppInit
 .text.Sl2s2002AppReset
                0x0000ca4c        0x6 Bin/Sl2s2002.o
                0x0000ca4c                Sl2s2002AppReset
 .text.Sl2s2002AppTask
                0x0000ca52        0x2 Bin/Sl2s2002.o
                0x0000ca52                Sl2s2002AppTask
 .text.Sl2s2002AppTick
                0x0000ca54        0x2 Bin/Sl2s2002.o
                0x0000ca54                Sl2s2002AppTick
 .text.Sl2s2002AppProcess
                0x0000ca56      0x3f4 Bin/Sl2s2002.o
                0x0000ca56                Sl2s2002AppProcess
 .text.Sl2s2002GetUid
                0x0000ce4a        0xe Bin/Sl2s2002.o
                0x0000ce4a                Sl2s2002GetUid
 .text.Sl2s2002SetUid
                0x0000ce58        0xe Bin/Sl2s2002.o
                0x0000ce58                Sl2s2002SetUid
 .text.TITagitstandardAppInit
                0x0000ce66       0x3c Bin/TITagitstandard.o
                0x0000ce66                TITagitstandardAppInit
 .text.TITagitstandardAppReset
                0x0000cea2       0x1c Bin/TITagitstandard.o
                0x0000cea2                TITagitstandardAppReset
 .text.TITagitstandardAppTask
                0x0000cebe        0x2 Bin/TITagitstandard.o
                0x0000cebe                TITagitstandardAppTask
 .text.TITagitstandardAppTick
                0x0000cec0        0x2 Bin/TITagitstandard.o
                0x0000cec0                TITagitstandardAppTick
 .text.TITagitstandardFlipUid
                0x0000cec2       0x22 Bin/TITagitstandard.o
                0x0000cec2                TITagitstandardFlipUid
 .text.TITagitstandardGetUid
                0x0000cee4       0x1c Bin/TITagitstandard.o
                0x0000cee4                TITagitstandardGetUid
 .text.TITagitstandardAppProcess
                0x0000cf00      0x2a2 Bin/TITagitstandard.o
                0x0000cf00                TITagitstandardAppProcess
 .text.TITagitstandardSetUid
                0x0000d1a2       0x1c Bin/TITagitstandard.o
                0x0000d1a2                TITagitstandardSetUid
 .text.calculateCRC
                0x0000d1be       0x3e Bin/ISO15693-A.o
                0x0000d1be                calculateCRC
 .text.ISO15693AppendCRC
                0x0000d1fc       0x20 Bin/ISO15693-A.o
                0x0000d1fc                ISO15693AppendCRC
 .text.ISO15693CheckCRC
                0x0000d21c       0x2c Bin/ISO15693-A.o
                0x0000d21c                ISO15693CheckCRC
 .text.ISO15693PrepareFrame
                0x0000d248      0x102 Bin/ISO15693-A.o
                0x0000d248                ISO15693PrepareFrame
 .text.ISO15693AntiColl
                0x0000d34a       0xb0 Bin/ISO15693-A.o
                0x0000d34a                ISO15693AntiColl
 .text.EM4233AppInit
                0x0000d3fa       0x2e Bin/EM4233.o
                0x0000d3fa                EM4233AppInit
 .text.EM4233AppReset
                0x0000d428       0x20 Bin/EM4233.o
                0x0000d428                EM4233AppReset
 .text.EM4233AppTask
                0x0000d448        0x2 Bin/EM4233.o
                0x0000d448                EM4233AppTask
 .text.EM4233AppTick
                0x0000d44a        0x2 Bin/EM4233.o
                0x0000d44a                EM4233AppTick
 .text.EM4233_Lock_Block
                0x0000d44c       0x68 Bin/EM4233.o
                0x0000d44c                EM4233_Lock_Block
 .text.EM4233_Write_Single
                0x0000d4b4       0x84 Bin/EM4233.o
                0x0000d4b4                EM4233_Write_Single
 .text.EM4233_Read_Single
                0x0000d538       0xcc Bin/EM4233.o
                0x0000d538                EM4233_Read_Single
 .text.EM4233_Read_Multiple
                0x0000d604      0x1a8 Bin/EM4233.o
                0x0000d604                EM4233_Read_Multiple
 .text.EM4233_Write_AFI
                0x0000d7ac       0x5c Bin/EM4233.o
                0x0000d7ac                EM4233_Write_AFI
 .text.EM4233_Lock_AFI
                0x0000d808       0x4a Bin/EM4233.o
                0x0000d808                EM4233_Lock_AFI
 .text.EM4233_Write_DSFID
                0x0000d852       0x56 Bin/EM4233.o
                0x0000d852                EM4233_Write_DSFID
 .text.EM4233_Lock_DSFID
                0x0000d8a8       0x4a Bin/EM4233.o
                0x0000d8a8                EM4233_Lock_DSFID
 .text.EM4233_Get_Multi_Block_Sec_Stat
                0x0000d8f2       0x5e Bin/EM4233.o
                0x0000d8f2                EM4233_Get_Multi_Block_Sec_Stat
 .text.EM4233_Select
                0x0000d950       0x92 Bin/EM4233.o
                0x0000d950                EM4233_Select
 .text.EM4233_Reset_To_Ready
                0x0000d9e2       0x24 Bin/EM4233.o
                0x0000d9e2                EM4233_Reset_To_Ready
 .text.EM4233_Login
                0x0000da06       0x8a Bin/EM4233.o
                0x0000da06                EM4233_Login
 .text.EM4233_Auth1
                0x0000da90       0x26 Bin/EM4233.o
                0x0000da90                EM4233_Auth1
 .text.EM4233_Auth2
                0x0000dab6       0x20 Bin/EM4233.o
                0x0000dab6                EM4233_Auth2
 .text.EM4233GetUid
                0x0000dad6        0xe Bin/EM4233.o
                0x0000dad6                EM4233GetUid
 .text.EM4233_Get_SysInfo
                0x0000dae4       0xce Bin/EM4233.o
                0x0000dae4                EM4233_Get_SysInfo
 .text.EM4233AppProcess
                0x0000dbb2      0x23a Bin/EM4233.o
                0x0000dbb2                EM4233AppProcess
 .text.EM4233SetUid
                0x0000ddec        0xe Bin/EM4233.o
                0x0000ddec                EM4233SetUid
 .text.USB_Device_ProcessControlRequest
                0x0000ddfa      0x240 Bin/DeviceStandardReq.o
                0x0000ddfa                USB_Device_ProcessControlRequest
 .text.USB_Event_Stub
                0x0000e03a        0x2 Bin/Events.o
                0x0000e03a                USB_Event_Stub
                0x0000e03a                EVENT_USB_Device_Suspend
                0x0000e03a                EVENT_USB_Device_StartOfFrame
                0x0000e03a                EVENT_USB_Device_Reset
                0x0000e03a                EVENT_USB_Device_WakeUp
 .text.USB_USBTask
                0x0000e03c       0x22 Bin/USBTask.o
                0x0000e03c                USB_USBTask
 .text.Endpoint_Write_Stream_LE
                0x0000e05e       0x9a Bin/EndpointStream_XMEGA.o
                0x0000e05e                Endpoint_Write_Stream_LE
 .text.Endpoint_Write_Control_Stream_LE
                0x0000e0f8       0xf8 Bin/EndpointStream_XMEGA.o
                0x0000e0f8                Endpoint_Write_Control_Stream_LE
 .text.Endpoint_Write_Control_PStream_LE
                0x0000e1f0       0xfc Bin/EndpointStream_XMEGA.o
                0x0000e1f0                Endpoint_Write_Control_PStream_LE
 .text.Endpoint_ClearIN
                0x0000e2ec       0x32 Bin/Endpoint_XMEGA.o
                0x0000e2ec                Endpoint_ClearIN
 .text.Endpoint_ClearOUT
                0x0000e31e       0x1e Bin/Endpoint_XMEGA.o
                0x0000e31e                Endpoint_ClearOUT
 .text.Endpoint_Read_8
                0x0000e33c       0x20 Bin/Endpoint_XMEGA.o
                0x0000e33c                Endpoint_Read_8
 .text.Endpoint_Write_8
                0x0000e35c       0x20 Bin/Endpoint_XMEGA.o
                0x0000e35c                Endpoint_Write_8
 .text.Endpoint_SelectEndpoint
                0x0000e37c       0x6a Bin/Endpoint_XMEGA.o
                0x0000e37c                Endpoint_SelectEndpoint
 .text.Endpoint_IsINReady
                0x0000e3e6       0x18 Bin/Endpoint_XMEGA.o
                0x0000e3e6                Endpoint_IsINReady
 .text.Endpoint_IsOUTReceived
                0x0000e3fe       0x34 Bin/Endpoint_XMEGA.o
                0x0000e3fe                Endpoint_IsOUTReceived
 .text.Endpoint_IsSETUPReceived
                0x0000e432       0x34 Bin/Endpoint_XMEGA.o
                0x0000e432                Endpoint_IsSETUPReceived
 .text.Endpoint_ClearSETUP
                0x0000e466       0x58 Bin/Endpoint_XMEGA.o
                0x0000e466                Endpoint_ClearSETUP
 .text.Endpoint_StallTransaction
                0x0000e4be       0x36 Bin/Endpoint_XMEGA.o
                0x0000e4be                Endpoint_StallTransaction
 .text.Endpoint_ConfigureEndpoint_PRV
                0x0000e4f4       0x6a Bin/Endpoint_XMEGA.o
                0x0000e4f4                Endpoint_ConfigureEndpoint_PRV
 .text.Endpoint_ConfigureEndpointTable
                0x0000e55e       0xae Bin/Endpoint_XMEGA.o
                0x0000e55e                Endpoint_ConfigureEndpointTable
 .text.Endpoint_ClearEndpoints
                0x0000e60c       0x38 Bin/Endpoint_XMEGA.o
                0x0000e60c                Endpoint_ClearEndpoints
 .text.Endpoint_ClearStatusStage
                0x0000e644       0x2c Bin/Endpoint_XMEGA.o
                0x0000e644                Endpoint_ClearStatusStage
 .text.Endpoint_WaitUntilReady
                0x0000e670       0x86 Bin/Endpoint_XMEGA.o
                0x0000e670                Endpoint_WaitUntilReady
 .text.USB_Disable
                0x0000e6f6       0x1a Bin/USBController_XMEGA.o
                0x0000e6f6                USB_Disable
 .text.USB_ResetInterface
                0x0000e710       0x5c Bin/USBController_XMEGA.o
                0x0000e710                USB_ResetInterface
 .text.USB_Init
                0x0000e76c       0x52 Bin/USBController_XMEGA.o
                0x0000e76c                USB_Init
 .text.USB_INT_DisableAllInterrupts
                0x0000e7be        0xe Bin/USBInterrupt_XMEGA.o
                0x0000e7be                USB_INT_DisableAllInterrupts
 .text.USB_INT_ClearAllInterrupts
                0x0000e7cc        0xc Bin/USBInterrupt_XMEGA.o
                0x0000e7cc                USB_INT_ClearAllInterrupts
 .text.__vector_125
                0x0000e7d8       0xf0 Bin/USBInterrupt_XMEGA.o
                0x0000e7d8                __vector_125
 .text.CDC_Device_ConfigureEndpoints
                0x0000e8c8       0x4a Bin/CDCClassDevice.o
                0x0000e8c8                CDC_Device_ConfigureEndpoints
 .text.CDC_Device_SendString
                0x0000e912       0x54 Bin/CDCClassDevice.o
                0x0000e912                CDC_Device_SendString
 .text.CDC_Device_SendData
                0x0000e966       0x48 Bin/CDCClassDevice.o
                0x0000e966                CDC_Device_SendData
 .text.CDC_Device_SendByte
                0x0000e9ae       0x5a Bin/CDCClassDevice.o
                0x0000e9ae                CDC_Device_SendByte
 .text.CDC_Device_Flush
                0x0000ea08       0x78 Bin/CDCClassDevice.o
                0x0000ea08                CDC_Device_Flush
 .text.CDC_Device_USBTask
                0x0000ea80       0x38 Bin/CDCClassDevice.o
                0x0000ea80                CDC_Device_USBTask
 .text.CDC_Device_ReceiveByte
                0x0000eab8       0xa4 Bin/CDCClassDevice.o
                0x0000eab8                CDC_Device_ReceiveByte
 .text.CDC_Device_Event_Stub
                0x0000eb5c        0x2 Bin/CDCClassDevice.o
                0x0000eb5c                EVENT_CDC_Device_ControLineStateChanged
                0x0000eb5c                EVENT_CDC_Device_BreakSent
                0x0000eb5c                CDC_Device_Event_Stub
                0x0000eb5c                EVENT_CDC_Device_LineEncodingChanged
 .text.CDC_Device_ProcessControlRequest
                0x0000eb5e      0x13c Bin/CDCClassDevice.o
                0x0000eb5e                CDC_Device_ProcessControlRequest
 .text.avr-libc.fplib
                0x0000ec9a       0x26 c:/program files/avr8-gnu-toolchain-win32_x86/bin/../lib/gcc/avr/5.4.0/../../../../avr/lib/avrxmega7\libm.a(ceil.o)
                0x0000ec9a                ceil
 .text.avr-libc.fplib
                0x0000ecc0        0x4 c:/program files/avr8-gnu-toolchain-win32_x86/bin/../lib/gcc/avr/5.4.0/../../../../avr/lib/avrxmega7\libm.a(divsf3.o)
                0x0000ecc0                __divsf3
 .text.avr-libc.fplib
                0x0000ecc4       0xcc c:/program files/avr8-gnu-toolchain-win32_x86/bin/../lib/gcc/avr/5.4.0/../../../../avr/lib/avrxmega7\libm.a(divsf3x.o)
                0x0000ecda                __divsf3x
                0x0000ecde                __divsf3_pse
 .text.avr-libc.fplib
                0x0000ed90       0x58 c:/program files/avr8-gnu-toolchain-win32_x86/bin/../lib/gcc/avr/5.4.0/../../../../avr/lib/avrxmega7\libm.a(fixunssfsi.o)
                0x0000ed90                __fixunssfsi
 .text.avr-libc.fplib
                0x0000ede8       0x7a c:/program files/avr8-gnu-toolchain-win32_x86/bin/../lib/gcc/avr/5.4.0/../../../../avr/lib/avrxmega7\libm.a(floatsisf.o)
                0x0000ede8                __floatunsisf
                0x0000edec                __floatsisf
 .text.avr-libc.fplib
                0x0000ee62        0xc c:/program files/avr8-gnu-toolchain-win32_x86/bin/../lib/gcc/avr/5.4.0/../../../../avr/lib/avrxmega7\libm.a(fp_inf.o)
                0x0000ee62                __fp_inf
 .text.avr-libc.fplib
                0x0000ee6e       0x36 c:/program files/avr8-gnu-toolchain-win32_x86/bin/../lib/gcc/avr/5.4.0/../../../../avr/lib/avrxmega7\libm.a(fp_mintl.o)
                0x0000ee6e                __fp_mintl
 .text.avr-libc.fplib
                0x0000eea4       0x1c c:/program files/avr8-gnu-toolchain-win32_x86/bin/../lib/gcc/avr/5.4.0/../../../../avr/lib/avrxmega7\libm.a(fp_mpack.o)
                0x0000eea4                __fp_mpack
                0x0000eea8                __fp_mpack_finite
 .text.avr-libc.fplib
                0x0000eec0        0x6 c:/program files/avr8-gnu-toolchain-win32_x86/bin/../lib/gcc/avr/5.4.0/../../../../avr/lib/avrxmega7\libm.a(fp_nan.o)
                0x0000eec0                __fp_nan
 .text.avr-libc.fplib
                0x0000eec6        0xe c:/program files/avr8-gnu-toolchain-win32_x86/bin/../lib/gcc/avr/5.4.0/../../../../avr/lib/avrxmega7\libm.a(fp_pscA.o)
                0x0000eec6                __fp_pscA
 .text.avr-libc.fplib
                0x0000eed4        0xe c:/program files/avr8-gnu-toolchain-win32_x86/bin/../lib/gcc/avr/5.4.0/../../../../avr/lib/avrxmega7\libm.a(fp_pscB.o)
                0x0000eed4                __fp_pscB
 .text.avr-libc.fplib
                0x0000eee2       0x22 c:/program files/avr8-gnu-toolchain-win32_x86/bin/../lib/gcc/avr/5.4.0/../../../../avr/lib/avrxmega7\libm.a(fp_round.o)
                0x0000eee2                __fp_round
 .text.avr-libc.fplib
                0x0000ef04       0x44 c:/program files/avr8-gnu-toolchain-win32_x86/bin/../lib/gcc/avr/5.4.0/../../../../avr/lib/avrxmega7\libm.a(fp_split3.o)
                0x0000ef04                __fp_split3
                0x0000ef14                __fp_splitA
 .text.avr-libc.fplib
                0x0000ef48       0x2e c:/program files/avr8-gnu-toolchain-win32_x86/bin/../lib/gcc/avr/5.4.0/../../../../avr/lib/avrxmega7\libm.a(fp_trunc.o)
                0x0000ef48                __fp_trunc
 .text.avr-libc.fplib
                0x0000ef76        0xe c:/program files/avr8-gnu-toolchain-win32_x86/bin/../lib/gcc/avr/5.4.0/../../../../avr/lib/avrxmega7\libm.a(fp_zero.o)
                0x0000ef76                __fp_zero
                0x0000ef78                __fp_szero
 .text.avr-libc.fplib
                0x0000ef84        0x8 c:/program files/avr8-gnu-toolchain-win32_x86/bin/../lib/gcc/avr/5.4.0/../../../../avr/lib/avrxmega7\libm.a(gesf2.o)
                0x0000ef84                __gesf2
                0x0000ef84                __gtsf2
 .text.avr-libc.fplib
                0x0000ef8c       0x48 c:/program files/avr8-gnu-toolchain-win32_x86/bin/../lib/gcc/avr/5.4.0/../../../../avr/lib/avrxmega7\libm.a(fp_cmp.o)
                0x0000ef8c                __fp_cmp
 .text.libgcc.div
                0x0000efd4       0x28 c:/program files/avr8-gnu-toolchain-win32_x86/bin/../lib/gcc/avr/5.4.0/avrxmega7\libgcc.a(_udivmodhi4.o)
                0x0000efd4                __udivmodhi4
 .text.libgcc.mul
                0x0000effc        0xc c:/program files/avr8-gnu-toolchain-win32_x86/bin/../lib/gcc/avr/5.4.0/avrxmega7\libgcc.a(_mulshisi3.o)
                0x0000effc                __mulshisi3
                0x0000f000                __mulohisi3
 .text.libgcc.mul
                0x0000f008       0x14 c:/program files/avr8-gnu-toolchain-win32_x86/bin/../lib/gcc/avr/5.4.0/avrxmega7\libgcc.a(_muluhisi3.o)
                0x0000f008                __muluhisi3
 .text.libgcc.mul
                0x0000f01c       0x1e c:/program files/avr8-gnu-toolchain-win32_x86/bin/../lib/gcc/avr/5.4.0/avrxmega7\libgcc.a(_umulhisi3.o)
                0x0000f01c                __umulhisi3
 .text.avr-libc
                0x0000f03a       0xaa c:/program files/avr8-gnu-toolchain-win32_x86/bin/../lib/gcc/avr/5.4.0/../../../../avr/lib/avrxmega7\libc.a(rand.o)
                0x0000f0c6                rand_r
                0x0000f0c8                rand
                0x0000f0ce                srand
 .text.avr-libc
                0x0000f0e4       0x12 c:/program files/avr8-gnu-toolchain-win32_x86/bin/../lib/gcc/avr/5.4.0/../../../../avr/lib/avrxmega7\libc.a(memcpy_P.o)
                0x0000f0e4                memcpy_P
 .text.avr-libc
                0x0000f0f6       0x12 c:/program files/avr8-gnu-toolchain-win32_x86/bin/../lib/gcc/avr/5.4.0/../../../../avr/lib/avrxmega7\libc.a(strcmp_P.o)
                0x0000f0f6                strcmp_P
 .text.avr-libc
                0x0000f108       0x1e c:/program files/avr8-gnu-toolchain-win32_x86/bin/../lib/gcc/avr/5.4.0/../../../../avr/lib/avrxmega7\libc.a(strncpy_P.o)
                0x0000f108                strncpy_P
 .text.avr-libc
                0x0000f126       0x1a c:/program files/avr8-gnu-toolchain-win32_x86/bin/../lib/gcc/avr/5.4.0/../../../../avr/lib/avrxmega7\libc.a(memcmp.o)
                0x0000f126                memcmp
 .text.avr-libc
                0x0000f140       0x12 c:/program files/avr8-gnu-toolchain-win32_x86/bin/../lib/gcc/avr/5.4.0/../../../../avr/lib/avrxmega7\libc.a(memcpy.o)
                0x0000f140                memcpy
 .text.avr-libc
                0x0000f152       0x22 c:/program files/avr8-gnu-toolchain-win32_x86/bin/../lib/gcc/avr/5.4.0/../../../../avr/lib/avrxmega7\libc.a(memmove.o)
                0x0000f152                memmove
 .text.avr-libc
                0x0000f174        0xe c:/program files/avr8-gnu-toolchain-win32_x86/bin/../lib/gcc/avr/5.4.0/../../../../avr/lib/avrxmega7\libc.a(memset.o)
                0x0000f174                memset
 .text.avr-libc
                0x0000f182       0x16 c:/program files/avr8-gnu-toolchain-win32_x86/bin/../lib/gcc/avr/5.4.0/../../../../avr/lib/avrxmega7\libc.a(strchr.o)
                0x0000f182                strchr
 .text.avr-libc
                0x0000f198        0xe c:/program files/avr8-gnu-toolchain-win32_x86/bin/../lib/gcc/avr/5.4.0/../../../../avr/lib/avrxmega7\libc.a(strcpy.o)
                0x0000f198                strcpy
 .text.avr-libc
                0x0000f1a6       0x6c c:/program files/avr8-gnu-toolchain-win32_x86/bin/../lib/gcc/avr/5.4.0/../../../../avr/lib/avrxmega7\libc.a(snprintf.o)
                0x0000f1a6                snprintf
 .text.avr-libc
                0x0000f212       0x6c c:/program files/avr8-gnu-toolchain-win32_x86/bin/../lib/gcc/avr/5.4.0/../../../../avr/lib/avrxmega7\libc.a(snprintf_p.o)
                0x0000f212                snprintf_P
 .text.avr-libc
                0x0000f27e       0x36 c:/program files/avr8-gnu-toolchain-win32_x86/bin/../lib/gcc/avr/5.4.0/../../../../avr/lib/avrxmega7\libc.a(sscanf_p.o)
                0x0000f27e                sscanf_P
 .text.avr-libc
                0x0000f2b4      0x3ee c:/program files/avr8-gnu-toolchain-win32_x86/bin/../lib/gcc/avr/5.4.0/../../../../avr/lib/avrxmega7\libc.a(vfprintf_std.o)
                0x0000f2b4                vfprintf
 .text.avr-libc
                0x0000f6a2      0x586 c:/program files/avr8-gnu-toolchain-win32_x86/bin/../lib/gcc/avr/5.4.0/../../../../avr/lib/avrxmega7\libc.a(vfscanf_std.o)
                0x0000f9fa                vfscanf
 .text.avr-libc
                0x0000fc28       0x10 c:/program files/avr8-gnu-toolchain-win32_x86/bin/../lib/gcc/avr/5.4.0/../../../../avr/lib/avrxmega7\libc.a(isspace.o)
                0x0000fc28                isspace
 .text.avr-libc
                0x0000fc38       0x16 c:/program files/avr8-gnu-toolchain-win32_x86/bin/../lib/gcc/avr/5.4.0/../../../../avr/lib/avrxmega7\libc.a(strchr_P.o)
                0x0000fc38                strchr_P
 .text.avr-libc
                0x0000fc4e       0x16 c:/program files/avr8-gnu-toolchain-win32_x86/bin/../lib/gcc/avr/5.4.0/../../../../avr/lib/avrxmega7\libc.a(strnlen_P.o)
                0x0000fc4e                strnlen_P
 .text.avr-libc
                0x0000fc64       0x16 c:/program files/avr8-gnu-toolchain-win32_x86/bin/../lib/gcc/avr/5.4.0/../../../../avr/lib/avrxmega7\libc.a(strnlen.o)
                0x0000fc64                strnlen
 .text.avr-libc
                0x0000fc7a       0x7c c:/program files/avr8-gnu-toolchain-win32_x86/bin/../lib/gcc/avr/5.4.0/../../../../avr/lib/avrxmega7\libc.a(fgetc.o)
                0x0000fc7a                fgetc
 .text.avr-libc
                0x0000fcf6       0x78 c:/program files/avr8-gnu-toolchain-win32_x86/bin/../lib/gcc/avr/5.4.0/../../../../avr/lib/avrxmega7\libc.a(fputc.o)
                0x0000fcf6                fputc
 .text.avr-libc
                0x0000fd6e       0x32 c:/program files/avr8-gnu-toolchain-win32_x86/bin/../lib/gcc/avr/5.4.0/../../../../avr/lib/avrxmega7\libc.a(ungetc.o)
                0x0000fd6e                ungetc
 .text.avr-libc
                0x0000fda0       0xbc c:/program files/avr8-gnu-toolchain-win32_x86/bin/../lib/gcc/avr/5.4.0/../../../../avr/lib/avrxmega7\libc.a(ultoa_invert.o)
                0x0000fda0                __ultoa_invert
 .text.avr-libc
                0x0000fe5c        0x6 c:/program files/avr8-gnu-toolchain-win32_x86/bin/../lib/gcc/avr/5.4.0/../../../../avr/lib/avrxmega7\libc.a(cty_isfalse.o)
                0x0000fe5c                __ctype_isfalse
                0x0000fe60                __ctype_istrue
 .text.avr-libc
                0x0000fe62       0x20 c:/program files/avr8-gnu-toolchain-win32_x86/bin/../lib/gcc/avr/5.4.0/../../../../avr/lib/avrxmega7\libatxmega128a4u.a(eerd_byte.o)
                0x0000fe62                eeprom_read_byte
                0x0000fe6a                eeprom_mapen
 .text.avr-libc
                0x0000fe82       0x12 c:/program files/avr8-gnu-toolchain-win32_x86/bin/../lib/gcc/avr/5.4.0/../../../../avr/lib/avrxmega7\libatxmega128a4u.a(eeupd_byte.o)
                0x0000fe82                eeprom_update_byte
                0x0000fe84                eeprom_update_r18
 .text.avr-libc
                0x0000fe94        0x8 c:/program files/avr8-gnu-toolchain-win32_x86/bin/../lib/gcc/avr/5.4.0/../../../../avr/lib/avrxmega7\libatxmega128a4u.a(eeupd_word.o)
                0x0000fe94                eeprom_update_word
 .text.avr-libc
                0x0000fe9c       0x46 c:/program files/avr8-gnu-toolchain-win32_x86/bin/../lib/gcc/avr/5.4.0/../../../../avr/lib/avrxmega7\libatxmega128a4u.a(eewr_byte.o)
                0x0000fe9c                eeprom_write_byte
                0x0000fe9e                eeprom_write_r18
 .text.libgcc.div
                0x0000fee2       0x28 c:/program files/avr8-gnu-toolchain-win32_x86/bin/../lib/gcc/avr/5.4.0/avrxmega7\libgcc.a(_divmodsi4.o)
                0x0000fee2                __divmodsi4
 .text.libgcc.div
                0x0000ff0a       0x10 c:/program files/avr8-gnu-toolchain-win32_x86/bin/../lib/gcc/avr/5.4.0/avrxmega7\libgcc.a(_negsi2.o)
                0x0000ff0a                __negsi2
 .text.libgcc.div
                0x0000ff1a       0x44 c:/program files/avr8-gnu-toolchain-win32_x86/bin/../lib/gcc/avr/5.4.0/avrxmega7\libgcc.a(_udivmodsi4.o)
                0x0000ff1a                __udivmodsi4
                0x0000ff5e                . = ALIGN (0x2)
 *(.fini9)
 .fini9         0x0000ff5e        0x0 c:/program files/avr8-gnu-toolchain-win32_x86/bin/../lib/gcc/avr/5.4.0/avrxmega7\libgcc.a(_exit.o)
                0x0000ff5e                _exit
                0x0000ff5e                exit
 *(.fini9)
 *(.fini8)
 *(.fini8)
 *(.fini7)
 *(.fini7)
 *(.fini6)
 *(.fini6)
 *(.fini5)
 *(.fini5)
 *(.fini4)
 *(.fini4)
 *(.fini3)
 *(.fini3)
 *(.fini2)
 *(.fini2)
 *(.fini1)
 *(.fini1)
 *(.fini0)
 .fini0         0x0000ff5e        0x4 c:/program files/avr8-gnu-toolchain-win32_x86/bin/../lib/gcc/avr/5.4.0/avrxmega7\libgcc.a(_exit.o)
 *(.fini0)
                0x0000ff62                _etext = .

.data           0x00802000      0x48c load address 0x0000ff62
                0x00802000                PROVIDE (__data_start, .)
 *(.data)
 .data          0x00802000        0x2 Bin/Log.o
 .data          0x00802002       0x1c Bin/Terminal.o
                0x00802003                TerminalHandle
 .data          0x0080201e        0x2 Bin/Codec.o
                0x0080201e                Reader_FWT
 .data          0x00802020        0x2 Bin/Sniff14443A.o
 .data          0x00802022        0x4 c:/program files/avr8-gnu-toolchain-win32_x86/bin/../lib/gcc/avr/5.4.0/../../../../avr/lib/avrxmega7\libc.a(rand.o)
 *(.data*)
 *(.gnu.linkonce.d*)
 *(.rodata)
 .rodata        0x00802026       0x1a Bin/ISO14443-2A.o
 .rodata        0x00802040       0x10 Bin/MifareClassic.o
 .rodata        0x00802050      0x360 Bin/Crypto1.o
 .rodata        0x008023b0       0x18 Bin/ISO15693.o
 *(.rodata*)
 .rodata.str1.1
                0x008023c8       0x10 Bin/Button.o
 .rodata.str1.1
                0x008023d8       0x10 Bin/Commands.o
                                  0x1 (size before relaxing)
 .rodata.str1.1
                0x008023d8       0xb1 Bin/Reader14443A.o
 .rodata.str1.1
                0x00802489        0x6 Bin/Sniff14443A.o
 .rodata.str1.1
                0x00802489        0x3 Bin/NFC_Command.o
 *(.gnu.linkonce.r*)
                0x00802490                . = ALIGN (0x2)
                0x00802490                _edata = .
                0x00802490                PROVIDE (__data_end, .)

.bss            0x0080248c     0x1349
                0x0080248c                PROVIDE (__bss_start, .)
 *(.bss)
 .bss           0x0080248c        0x1 Bin/Memory.o
 .bss           0x0080248d        0x2 Bin/Button.o
 .bss           0x0080248f      0x805 Bin/Log.o
 .bss           0x00802c94        0x4 Bin/LED.o
                0x00802c94                LEDRedAction
                0x00802c95                LEDGreenAction
 .bss           0x00802c98        0x1 Bin/Terminal.o
                0x00802c98                TerminalState
 .bss           0x00802c99        0xe Bin/XModem.o
 .bss           0x00802ca7        0x7 Bin/CommandLine.o
                0x00802ca7                CommandLinePendingTaskTimeout
 .bss           0x00802cae        0x9 Bin/Codec.o
 .bss           0x00802cb7        0x2 Bin/ISO14443-2A.o
 .bss           0x00802cb9        0x6 Bin/Reader14443-2A.o
 .bss           0x00802cbf        0xa Bin/SniffISO14443-2A.o
 .bss           0x00802cc9       0x29 Bin/MifareUltralight.o
 .bss           0x00802cf2       0x24 Bin/MifareClassic.o
 .bss           0x00802d16        0x6 Bin/Crypto1.o
 .bss           0x00802d1c       0xdc Bin/Reader14443A.o
                0x00802d1c                Reader14443CurrentCommand
 .bss           0x00802df8       0x7a Bin/Sniff14443A.o
                0x00802df8                Sniff14443CurrentCommand
 .bss           0x00802e72       0x22 Bin/NFC_Command.o
                0x00802e72                t
 .bss           0x00802e94        0x9 Bin/NTAG215.o
 .bss           0x00802e9d        0xf Bin/ISO15693.o
 .bss           0x00802eac        0x1 Bin/Vicinity.o
 .bss           0x00802ead        0x1 Bin/Sl2s2002.o
 .bss           0x00802eae        0x5 Bin/TITagitstandard.o
                0x00802eae                FactoryLockBits_Mask
                0x00802eb0                UserLockBits_Mask
 .bss           0x00802eb3        0x1 Bin/EM4233.o
 *(.bss*)
 *(COMMON)
 COMMON         0x00802eb4      0x109 Bin/Chameleon-Mini.o
                0x00802eb4                TrafficSource
                0x00802eb5                isr_func_CODEC_TIMER_LOADMOD_CCB_VECT
                0x00802eb7                isr_func_TCD0_CCC_vect
                0x00802eb9                ReaderSendBuffer
                0x00802fb9                isr_func_CODEC_DEMOD_IN_INT0_VECT
                0x00802fbb                ReaderSendBitCount
 COMMON         0x00802fbd       0x19 Bin/Configuration.o
                0x00802fbd                ActiveConfiguration
 COMMON         0x00802fd6        0x2 Bin/Log.o
                0x00802fd6                CurrentLogFunc
 COMMON         0x00802fd8       0x63 Bin/Settings.o
                0x00802fd8                GlobalSettings
 COMMON         0x0080303b      0x200 Bin/Terminal.o
                0x0080303b                TerminalBuffer
 COMMON         0x0080323b        0x2 Bin/CommandLine.o
                0x0080323b                NFCResponse
 COMMON         0x0080323d      0x200 Bin/Codec.o
                0x0080323d                CodecBuffer
                0x0080333d                CodecBuffer2
 COMMON         0x0080343d        0xa Bin/TITagitstandard.o
                0x0080343d                MyAFI
                0x0080343e                FrameInfo
 COMMON         0x00803447        0x1 Bin/EM4233.o
                0x00803447                loggedIn
 COMMON         0x00803448        0x3 Bin/DeviceStandardReq.o
                0x00803448                USB_Device_ConfigurationNumber
                0x00803449                USB_Device_CurrentlySelfPowered
                0x0080344a                USB_Device_RemoteWakeupEnabled
 COMMON         0x0080344b        0xa Bin/USBTask.o
                0x0080344b                USB_IsInitialized
                0x0080344c                USB_DeviceState
                0x0080344d                USB_ControlRequest
 COMMON         0x00803455      0x31d Bin/Endpoint_XMEGA.o
                0x00803455                USB_Endpoint_SelectedFIFO
                0x00803457                USB_Endpoint_SelectedHandle
                0x00803459                USB_Endpoint_SelectedEndpoint
                0x0080345a                USB_Endpoint_FIFOs
 COMMON         0x00803772       0x63 Bin/USBController_XMEGA.o
                0x00803772                USB_EndpointTable
                0x008037d5                PROVIDE (__bss_end, .)
                0x0000ff62                __data_load_start = LOADADDR (.data)
                0x000103ee                __data_load_end = (__data_load_start + SIZEOF (.data))

.noinit         0x008037d5        0x0
                [!provide]                PROVIDE (__noinit_start, .)
 *(.noinit*)
                [!provide]                PROVIDE (__noinit_end, .)
                0x008037d5                _end = .
                [!provide]                PROVIDE (__heap_start, .)

.eeprom         0x00810000       0x64
 *(.eeprom*)
 .eeprom        0x00810000        0x1 Bin/Log.o
 .eeprom        0x00810001       0x63 Bin/Settings.o
                0x00810001                StoredSettings
                0x00810064                __eeprom_end = .

.fuse
 *(.fuse)
 *(.lfuse)
 *(.hfuse)
 *(.efuse)

.lock
 *(.lock*)

.signature
 *(.signature*)

.user_signatures
 *(.user_signatures*)

.stab
 *(.stab)

.stabstr
 *(.stabstr)

.stab.excl
 *(.stab.excl)

.stab.exclstr
 *(.stab.exclstr)

.stab.index
 *(.stab.index)

.stab.indexstr
 *(.stab.indexstr)

.comment        0x00000000       0x5c
 *(.comment)
 .comment       0x00000000       0x30 Bin/Chameleon-Mini.o
                                 0x31 (size before relaxing)
 .comment       0x00000030       0x31 Bin/LUFADescriptors.o
 .comment       0x00000030       0x31 Bin/System.o
 .comment       0x00000030       0x31 Bin/Configuration.o
 .comment       0x00000030       0x31 Bin/Random.o
 .comment       0x00000030       0x31 Bin/Common.o
 .comment       0x00000030       0x31 Bin/Memory.o
 .comment       0x00000030       0x31 Bin/Button.o
 .comment       0x00000030       0x31 Bin/Log.o
 .comment       0x00000030       0x31 Bin/Settings.o
 .comment       0x00000030       0x31 Bin/LED.o
 .comment       0x00000030       0x31 Bin/Map.o
 .comment       0x00000030       0x31 Bin/AntennaLevel.o
 .comment       0x00000030       0x31 Bin/Terminal.o
 .comment       0x00000030       0x31 Bin/Commands.o
 .comment       0x00000030       0x31 Bin/XModem.o
 .comment       0x00000030       0x31 Bin/CommandLine.o
 .comment       0x00000030       0x31 Bin/Codec.o
 .comment       0x00000030       0x31 Bin/ISO14443-2A.o
 .comment       0x00000030       0x31 Bin/Reader14443-2A.o
 .comment       0x00000030       0x31 Bin/SniffISO14443-2A.o
 .comment       0x00000030       0x31 Bin/MifareUltralight.o
 .comment       0x00000030       0x31 Bin/MifareClassic.o
 .comment       0x00000030       0x31 Bin/ISO14443-3A.o
 .comment       0x00000030       0x31 Bin/Crypto1.o
 .comment       0x00000030       0x31 Bin/Reader14443A.o
 .comment       0x00000030       0x31 Bin/Sniff14443A.o
 .comment       0x00000030       0x31 Bin/NFC_Command.o
 .comment       0x00000030       0x31 Bin/NTAG215.o
 .comment       0x00000030       0x31 Bin/ISO15693.o
 .comment       0x00000030       0x31 Bin/Vicinity.o
 .comment       0x00000030       0x31 Bin/Sl2s2002.o
 .comment       0x00000030       0x31 Bin/TITagitstandard.o
 .comment       0x00000030       0x31 Bin/ISO15693-A.o
 .comment       0x00000030       0x31 Bin/EM4233.o
 .comment       0x00000030       0x31 Bin/DeviceStandardReq.o
 .comment       0x00000030       0x31 Bin/Events.o
 .comment       0x00000030       0x31 Bin/USBTask.o
 .comment       0x00000030       0x31 Bin/EndpointStream_XMEGA.o
 .comment       0x00000030       0x31 Bin/Endpoint_XMEGA.o
 .comment       0x00000030       0x31 Bin/USBController_XMEGA.o
 .comment       0x00000030       0x31 Bin/USBInterrupt_XMEGA.o
 .comment       0x00000030       0x31 Bin/CDCClassDevice.o
 .comment       0x00000030       0x31 c:/program files/avr8-gnu-toolchain-win32_x86/bin/../lib/gcc/avr/5.4.0/../../../../avr/lib/avrxmega7\libc.a(rand.o)
 .comment       0x00000030       0x31 c:/program files/avr8-gnu-toolchain-win32_x86/bin/../lib/gcc/avr/5.4.0/../../../../avr/lib/avrxmega7\libc.a(snprintf.o)
 .comment       0x00000030       0x31 c:/program files/avr8-gnu-toolchain-win32_x86/bin/../lib/gcc/avr/5.4.0/../../../../avr/lib/avrxmega7\libc.a(snprintf_p.o)
 .comment       0x00000030       0x31 c:/program files/avr8-gnu-toolchain-win32_x86/bin/../lib/gcc/avr/5.4.0/../../../../avr/lib/avrxmega7\libc.a(sscanf_p.o)
 .comment       0x00000030       0x2c c:/program files/avr8-gnu-toolchain-win32_x86/bin/../lib/gcc/avr/5.4.0/../../../../avr/lib/avrxmega7\libc.a(vfprintf_std.o)
                                 0x2d (size before relaxing)
 .comment       0x0000005c       0x2d c:/program files/avr8-gnu-toolchain-win32_x86/bin/../lib/gcc/avr/5.4.0/../../../../avr/lib/avrxmega7\libc.a(vfscanf_std.o)
 .comment       0x0000005c       0x31 c:/program files/avr8-gnu-toolchain-win32_x86/bin/../lib/gcc/avr/5.4.0/../../../../avr/lib/avrxmega7\libc.a(fgetc.o)
 .comment       0x0000005c       0x31 c:/program files/avr8-gnu-toolchain-win32_x86/bin/../lib/gcc/avr/5.4.0/../../../../avr/lib/avrxmega7\libc.a(fputc.o)
 .comment       0x0000005c       0x31 c:/program files/avr8-gnu-toolchain-win32_x86/bin/../lib/gcc/avr/5.4.0/../../../../avr/lib/avrxmega7\libc.a(ungetc.o)

.note.gnu.avr.deviceinfo
                0x00000000       0x40
 .note.gnu.avr.deviceinfo
                0x00000000       0x40 c:/program files/avr8-gnu-toolchain-win32_x86/bin/../lib/gcc/avr/5.4.0/../../../../avr/lib/avrxmega7/crtatxmega128a4u.o

.note.gnu.build-id
 *(.note.gnu.build-id)

.debug
 *(.debug)

.line
 *(.line)

.debug_srcinfo
 *(.debug_srcinfo)

.debug_sfnames
 *(.debug_sfnames)

.debug_aranges  0x00000000     0x1008
 *(.debug_aranges)
 .debug_aranges
                0x00000000       0x20 Bin/Chameleon-Mini.o
 .debug_aranges
                0x00000020       0x20 Bin/LUFADescriptors.o
 .debug_aranges
                0x00000040       0x58 Bin/System.o
 .debug_aranges
                0x00000098       0x20 Bin/ISRSharing.o
 .debug_aranges
                0x000000b8       0x58 Bin/Configuration.o
 .debug_aranges
                0x00000110       0x38 Bin/Random.o
 .debug_aranges
                0x00000148       0x28 Bin/Common.o
 .debug_aranges
                0x00000170       0x78 Bin/Memory.o
 .debug_aranges
                0x000001e8       0x28 Bin/MemoryAsm.o
 .debug_aranges
                0x00000210       0x50 Bin/Button.o
 .debug_aranges
                0x00000260       0x88 Bin/Log.o
 .debug_aranges
                0x000002e8       0x50 Bin/Settings.o
 .debug_aranges
                0x00000338       0x48 Bin/LED.o
 .debug_aranges
                0x00000380       0x30 Bin/Map.o
 .debug_aranges
                0x000003b0       0x20 Bin/AntennaLevel.o
 .debug_aranges
                0x000003d0       0x68 Bin/Terminal.o
 .debug_aranges
                0x00000438      0x1d0 Bin/Commands.o
 .debug_aranges
                0x00000608       0x38 Bin/XModem.o
 .debug_aranges
                0x00000640       0x60 Bin/CommandLine.o
 .debug_aranges
                0x000006a0       0x58 Bin/Codec.o
 .debug_aranges
                0x000006f8       0x50 Bin/ISO14443-2A.o
 .debug_aranges
                0x00000748       0x68 Bin/Reader14443-2A.o
 .debug_aranges
                0x000007b0       0x60 Bin/SniffISO14443-2A.o
 .debug_aranges
                0x00000810       0x20 Bin/Reader14443-ISR.o
 .debug_aranges
                0x00000830       0x80 Bin/MifareUltralight.o
 .debug_aranges
                0x000008b0       0x68 Bin/MifareClassic.o
 .debug_aranges
                0x00000918       0x28 Bin/ISO14443-3A.o
 .debug_aranges
                0x00000940       0x70 Bin/Crypto1.o
 .debug_aranges
                0x000009b0       0x78 Bin/Reader14443A.o
 .debug_aranges
                0x00000a28       0x40 Bin/Sniff14443A.o
 .debug_aranges
                0x00000a68       0x20 Bin/CryptoTDEA.o
 .debug_aranges
                0x00000a88       0x58 Bin/NFC_Command.o
 .debug_aranges
                0x00000ae0       0x48 Bin/NTAG215.o
 .debug_aranges
                0x00000b28       0x50 Bin/ISO15693.o
 .debug_aranges
                0x00000b78       0x40 Bin/Vicinity.o
 .debug_aranges
                0x00000bb8       0x40 Bin/Sl2s2002.o
 .debug_aranges
                0x00000bf8       0x50 Bin/TITagitstandard.o
 .debug_aranges
                0x00000c48       0x40 Bin/ISO15693-A.o
 .debug_aranges
                0x00000c88       0xc0 Bin/EM4233.o
 .debug_aranges
                0x00000d48       0x20 Bin/DeviceStandardReq.o
 .debug_aranges
                0x00000d68       0x20 Bin/Events.o
 .debug_aranges
                0x00000d88       0x20 Bin/USBTask.o
 .debug_aranges
                0x00000da8       0xc8 Bin/EndpointStream_XMEGA.o
 .debug_aranges
                0x00000e70       0x90 Bin/Endpoint_XMEGA.o
 .debug_aranges
                0x00000f00       0x30 Bin/USBController_XMEGA.o
 .debug_aranges
                0x00000f30       0x30 Bin/USBInterrupt_XMEGA.o
 .debug_aranges
                0x00000f60       0xa8 Bin/CDCClassDevice.o

.debug_pubnames
 *(.debug_pubnames)

.debug_info     0x00000000    0x39011
 *(.debug_info .gnu.linkonce.wi.*)
 .debug_info    0x00000000     0x284f c:/program files/avr8-gnu-toolchain-win32_x86/bin/../lib/gcc/avr/5.4.0/../../../../avr/lib/avrxmega7/crtatxmega128a4u.o
 .debug_info    0x0000284f     0x2559 Bin/Chameleon-Mini.o
 .debug_info    0x00004da8      0x960 Bin/LUFADescriptors.o
 .debug_info    0x00005708      0xd23 Bin/System.o
 .debug_info    0x0000642b       0x9d Bin/ISRSharing.o
 .debug_info    0x000064c8      0xe97 Bin/Configuration.o
 .debug_info    0x0000735f      0x1aa Bin/Random.o
 .debug_info    0x00007509      0x1fe Bin/Common.o
 .debug_info    0x00007707     0x1d10 Bin/Memory.o
 .debug_info    0x00009417       0x98 Bin/MemoryAsm.o
 .debug_info    0x000094af     0x190f Bin/Button.o
 .debug_info    0x0000adbe     0x147c Bin/Log.o
 .debug_info    0x0000c23a      0xcd2 Bin/Settings.o
 .debug_info    0x0000cf0c      0xd80 Bin/LED.o
 .debug_info    0x0000dc8c      0x33b Bin/Map.o
 .debug_info    0x0000dfc7      0xf7e Bin/AntennaLevel.o
 .debug_info    0x0000ef45      0xf8a Bin/Terminal.o
 .debug_info    0x0000fecf     0x38c5 Bin/Commands.o
 .debug_info    0x00013794      0xa23 Bin/XModem.o
 .debug_info    0x000141b7     0x1498 Bin/CommandLine.o
 .debug_info    0x0001564f     0x1736 Bin/Codec.o
 .debug_info    0x00016d85     0x2a13 Bin/ISO14443-2A.o
 .debug_info    0x00019798     0x2bbe Bin/Reader14443-2A.o
 .debug_info    0x0001c356     0x2a12 Bin/SniffISO14443-2A.o
 .debug_info    0x0001ed68       0xa8 Bin/Reader14443-ISR.o
 .debug_info    0x0001ee10     0x1d12 Bin/MifareUltralight.o
 .debug_info    0x00020b22     0x2219 Bin/MifareClassic.o
 .debug_info    0x00022d3b      0x459 Bin/ISO14443-3A.o
 .debug_info    0x00023194     0x22e1 Bin/Crypto1.o
 .debug_info    0x00025475     0x2681 Bin/Reader14443A.o
 .debug_info    0x00027af6      0xe73 Bin/Sniff14443A.o
 .debug_info    0x00028969       0xa9 Bin/CryptoTDEA.o
 .debug_info    0x00028a12     0x16f6 Bin/NFC_Command.o
 .debug_info    0x0002a108     0x1576 Bin/NTAG215.o
 .debug_info    0x0002b67e     0x2b5b Bin/ISO15693.o
 .debug_info    0x0002e1d9      0xd57 Bin/Vicinity.o
 .debug_info    0x0002ef30      0xf56 Bin/Sl2s2002.o
 .debug_info    0x0002fe86      0xe59 Bin/TITagitstandard.o
 .debug_info    0x00030cdf      0x4a1 Bin/ISO15693-A.o
 .debug_info    0x00031180     0x1aee Bin/EM4233.o
 .debug_info    0x00032c6e     0x114a Bin/DeviceStandardReq.o
 .debug_info    0x00033db8       0x7f Bin/Events.o
 .debug_info    0x00033e37      0x423 Bin/USBTask.o
 .debug_info    0x0003425a     0x17bb Bin/EndpointStream_XMEGA.o
 .debug_info    0x00035a15      0xd2f Bin/Endpoint_XMEGA.o
 .debug_info    0x00036744      0xd65 Bin/USBController_XMEGA.o
 .debug_info    0x000374a9      0xa81 Bin/USBInterrupt_XMEGA.o
 .debug_info    0x00037f2a     0x10e7 Bin/CDCClassDevice.o

.debug_abbrev   0x00000000     0xa148
 *(.debug_abbrev)
 .debug_abbrev  0x00000000     0x262c c:/program files/avr8-gnu-toolchain-win32_x86/bin/../lib/gcc/avr/5.4.0/../../../../avr/lib/avrxmega7/crtatxmega128a4u.o
 .debug_abbrev  0x0000262c      0x255 Bin/Chameleon-Mini.o
 .debug_abbrev  0x00002881      0x1b7 Bin/LUFADescriptors.o
 .debug_abbrev  0x00002a38      0x1d3 Bin/System.o
 .debug_abbrev  0x00002c0b       0x14 Bin/ISRSharing.o
 .debug_abbrev  0x00002c1f      0x39e Bin/Configuration.o
 .debug_abbrev  0x00002fbd      0x138 Bin/Random.o
 .debug_abbrev  0x000030f5       0xbb Bin/Common.o
 .debug_abbrev  0x000031b0      0x3a4 Bin/Memory.o
 .debug_abbrev  0x00003554       0x12 Bin/MemoryAsm.o
 .debug_abbrev  0x00003566      0x3c1 Bin/Button.o
 .debug_abbrev  0x00003927      0x3b1 Bin/Log.o
 .debug_abbrev  0x00003cd8      0x2bd Bin/Settings.o
 .debug_abbrev  0x00003f95      0x2db Bin/LED.o
 .debug_abbrev  0x00004270      0x158 Bin/Map.o
 .debug_abbrev  0x000043c8      0x237 Bin/AntennaLevel.o
 .debug_abbrev  0x000045ff      0x32d Bin/Terminal.o
 .debug_abbrev  0x0000492c      0x3ff Bin/Commands.o
 .debug_abbrev  0x00004d2b      0x29f Bin/XModem.o
 .debug_abbrev  0x00004fca      0x382 Bin/CommandLine.o
 .debug_abbrev  0x0000534c      0x2c6 Bin/Codec.o
 .debug_abbrev  0x00005612      0x356 Bin/ISO14443-2A.o
 .debug_abbrev  0x00005968      0x3bf Bin/Reader14443-2A.o
 .debug_abbrev  0x00005d27      0x370 Bin/SniffISO14443-2A.o
 .debug_abbrev  0x00006097       0x14 Bin/Reader14443-ISR.o
 .debug_abbrev  0x000060ab      0x479 Bin/MifareUltralight.o
 .debug_abbrev  0x00006524      0x3a3 Bin/MifareClassic.o
 .debug_abbrev  0x000068c7      0x1ab Bin/ISO14443-3A.o
 .debug_abbrev  0x00006a72      0x32f Bin/Crypto1.o
 .debug_abbrev  0x00006da1      0x48d Bin/Reader14443A.o
 .debug_abbrev  0x0000722e      0x2ee Bin/Sniff14443A.o
 .debug_abbrev  0x0000751c       0x14 Bin/CryptoTDEA.o
 .debug_abbrev  0x00007530      0x41b Bin/NFC_Command.o
 .debug_abbrev  0x0000794b      0x36e Bin/NTAG215.o
 .debug_abbrev  0x00007cb9      0x342 Bin/ISO15693.o
 .debug_abbrev  0x00007ffb      0x2c3 Bin/Vicinity.o
 .debug_abbrev  0x000082be      0x2e4 Bin/Sl2s2002.o
 .debug_abbrev  0x000085a2      0x2d5 Bin/TITagitstandard.o
 .debug_abbrev  0x00008877      0x1ad Bin/ISO15693-A.o
 .debug_abbrev  0x00008a24      0x3c6 Bin/EM4233.o
 .debug_abbrev  0x00008dea      0x302 Bin/DeviceStandardReq.o
 .debug_abbrev  0x000090ec       0x44 Bin/Events.o
 .debug_abbrev  0x00009130      0x1fc Bin/USBTask.o
 .debug_abbrev  0x0000932c      0x212 Bin/EndpointStream_XMEGA.o
 .debug_abbrev  0x0000953e      0x304 Bin/Endpoint_XMEGA.o
 .debug_abbrev  0x00009842      0x2e0 Bin/USBController_XMEGA.o
 .debug_abbrev  0x00009b22      0x247 Bin/USBInterrupt_XMEGA.o
 .debug_abbrev  0x00009d69      0x3df Bin/CDCClassDevice.o

.debug_line     0x00000000    0x124a4
 *(.debug_line .debug_line.* .debug_line_end)
 .debug_line    0x00000000       0x1a c:/program files/avr8-gnu-toolchain-win32_x86/bin/../lib/gcc/avr/5.4.0/../../../../avr/lib/avrxmega7/crtatxmega128a4u.o
 .debug_line    0x0000001a      0x4cc Bin/Chameleon-Mini.o
 .debug_line    0x000004e6      0x299 Bin/LUFADescriptors.o
 .debug_line    0x0000077f      0x258 Bin/System.o
 .debug_line    0x000009d7       0x40 Bin/ISRSharing.o
 .debug_line    0x00000a17      0x3e4 Bin/Configuration.o
 .debug_line    0x00000dfb       0xfc Bin/Random.o
 .debug_line    0x00000ef7      0x1c6 Bin/Common.o
 .debug_line    0x000010bd      0x8d5 Bin/Memory.o
 .debug_line    0x00001992      0x176 Bin/MemoryAsm.o
 .debug_line    0x00001b08      0x5ab Bin/Button.o
 .debug_line    0x000020b3      0x603 Bin/Log.o
 .debug_line    0x000026b6      0x3e0 Bin/Settings.o
 .debug_line    0x00002a96      0x3c7 Bin/LED.o
 .debug_line    0x00002e5d      0x19a Bin/Map.o
 .debug_line    0x00002ff7      0x31e Bin/AntennaLevel.o
 .debug_line    0x00003315      0x47e Bin/Terminal.o
 .debug_line    0x00003793     0x10c8 Bin/Commands.o
 .debug_line    0x0000485b      0x44c Bin/XModem.o
 .debug_line    0x00004ca7      0x636 Bin/CommandLine.o
 .debug_line    0x000052dd      0x416 Bin/Codec.o
 .debug_line    0x000056f3      0x8bc Bin/ISO14443-2A.o
 .debug_line    0x00005faf      0xb5d Bin/Reader14443-2A.o
 .debug_line    0x00006b0c      0xa50 Bin/SniffISO14443-2A.o
 .debug_line    0x0000755c      0x1b3 Bin/Reader14443-ISR.o
 .debug_line    0x0000770f      0xa67 Bin/MifareUltralight.o
 .debug_line    0x00008176      0xd78 Bin/MifareClassic.o
 .debug_line    0x00008eee      0x1f5 Bin/ISO14443-3A.o
 .debug_line    0x000090e3     0x126d Bin/Crypto1.o
 .debug_line    0x0000a350      0xf23 Bin/Reader14443A.o
 .debug_line    0x0000b273      0x4dd Bin/Sniff14443A.o
 .debug_line    0x0000b750      0x7c6 Bin/CryptoTDEA.o
 .debug_line    0x0000bf16      0x7e8 Bin/NFC_Command.o
 .debug_line    0x0000c6fe      0x706 Bin/NTAG215.o
 .debug_line    0x0000ce04      0xa64 Bin/ISO15693.o
 .debug_line    0x0000d868      0x484 Bin/Vicinity.o
 .debug_line    0x0000dcec      0x65f Bin/Sl2s2002.o
 .debug_line    0x0000e34b      0x598 Bin/TITagitstandard.o
 .debug_line    0x0000e8e3      0x2c2 Bin/ISO15693-A.o
 .debug_line    0x0000eba5      0xb08 Bin/EM4233.o
 .debug_line    0x0000f6ad      0x441 Bin/DeviceStandardReq.o
 .debug_line    0x0000faee       0x4f Bin/Events.o
 .debug_line    0x0000fb3d      0x1b4 Bin/USBTask.o
 .debug_line    0x0000fcf1     0x11c4 Bin/EndpointStream_XMEGA.o
 .debug_line    0x00010eb5      0x641 Bin/Endpoint_XMEGA.o
 .debug_line    0x000114f6      0x36e Bin/USBController_XMEGA.o
 .debug_line    0x00011864      0x36b Bin/USBInterrupt_XMEGA.o
 .debug_line    0x00011bcf      0x8d5 Bin/CDCClassDevice.o

.debug_frame    0x00000000     0x308c
 *(.debug_frame)
 .debug_frame   0x00000000       0x24 Bin/Chameleon-Mini.o
 .debug_frame   0x00000024       0x24 Bin/LUFADescriptors.o
 .debug_frame   0x00000048       0xb4 Bin/System.o
 .debug_frame   0x000000fc      0x140 Bin/Configuration.o
 .debug_frame   0x0000023c       0x64 Bin/Random.o
 .debug_frame   0x000002a0       0x4c Bin/Common.o
 .debug_frame   0x000002ec      0x1f4 Bin/Memory.o
 .debug_frame   0x000004e0       0xcc Bin/Button.o
 .debug_frame   0x000005ac      0x1d0 Bin/Log.o
 .debug_frame   0x0000077c       0xa0 Bin/Settings.o
 .debug_frame   0x0000081c       0x9c Bin/LED.o
 .debug_frame   0x000008b8       0x7c Bin/Map.o
 .debug_frame   0x00000934       0x24 Bin/AntennaLevel.o
 .debug_frame   0x00000958       0xcc Bin/Terminal.o
 .debug_frame   0x00000a24      0x5bc Bin/Commands.o
 .debug_frame   0x00000fe0       0x5c Bin/XModem.o
 .debug_frame   0x0000103c      0x104 Bin/CommandLine.o
 .debug_frame   0x00001140       0x9c Bin/Codec.o
 .debug_frame   0x000011dc      0x10c Bin/ISO14443-2A.o
 .debug_frame   0x000012e8      0x174 Bin/Reader14443-2A.o
 .debug_frame   0x0000145c      0x19c Bin/SniffISO14443-2A.o
 .debug_frame   0x000015f8      0x198 Bin/MifareUltralight.o
 .debug_frame   0x00001790      0x114 Bin/MifareClassic.o
 .debug_frame   0x000018a4       0x34 Bin/ISO14443-3A.o
 .debug_frame   0x000018d8      0x21c Bin/Crypto1.o
 .debug_frame   0x00001af4      0x214 Bin/Reader14443A.o
 .debug_frame   0x00001d08       0x90 Bin/Sniff14443A.o
 .debug_frame   0x00001d98      0x168 Bin/NFC_Command.o
 .debug_frame   0x00001f00       0xcc Bin/NTAG215.o
 .debug_frame   0x00001fcc       0xe4 Bin/ISO15693.o
 .debug_frame   0x000020b0       0xa8 Bin/Vicinity.o
 .debug_frame   0x00002158       0xcc Bin/Sl2s2002.o
 .debug_frame   0x00002224       0xf0 Bin/TITagitstandard.o
 .debug_frame   0x00002314       0xc8 Bin/ISO15693-A.o
 .debug_frame   0x000023dc      0x330 Bin/EM4233.o
 .debug_frame   0x0000270c       0x40 Bin/DeviceStandardReq.o
 .debug_frame   0x0000274c       0x24 Bin/Events.o
 .debug_frame   0x00002770       0x2c Bin/USBTask.o
 .debug_frame   0x0000279c      0x4a8 Bin/EndpointStream_XMEGA.o
 .debug_frame   0x00002c44      0x14c Bin/Endpoint_XMEGA.o
 .debug_frame   0x00002d90       0x5c Bin/USBController_XMEGA.o
 .debug_frame   0x00002dec       0x8c Bin/USBInterrupt_XMEGA.o
 .debug_frame   0x00002e78      0x214 Bin/CDCClassDevice.o

.debug_str      0x00000000     0xb8e0
 *(.debug_str)
 .debug_str     0x00000000     0x1aa8 c:/program files/avr8-gnu-toolchain-win32_x86/bin/../lib/gcc/avr/5.4.0/../../../../avr/lib/avrxmega7/crtatxmega128a4u.o
 .debug_str     0x00001aa8     0x2bef Bin/Chameleon-Mini.o
                               0x2d22 (size before relaxing)
 .debug_str     0x00004697      0x8cc Bin/LUFADescriptors.o
                                0xc44 (size before relaxing)
 .debug_str     0x00004f63      0xb3f Bin/System.o
                                0xeda (size before relaxing)
 .debug_str     0x00005aa2      0x16f Bin/Configuration.o
                               0x1048 (size before relaxing)
 .debug_str     0x00005c11       0x36 Bin/Random.o
                                0x265 (size before relaxing)
 .debug_str     0x00005c47       0x56 Bin/Common.o
                                0x288 (size before relaxing)
 .debug_str     0x00005c9d      0xd5e Bin/Memory.o
                               0x1f6c (size before relaxing)
 .debug_str     0x000069fb      0x354 Bin/Button.o
                               0x1665 (size before relaxing)
 .debug_str     0x00006d4f      0x19a Bin/Log.o
                               0x10b0 (size before relaxing)
 .debug_str     0x00006ee9       0xc9 Bin/Settings.o
                                0xf3f (size before relaxing)
 .debug_str     0x00006fb2       0x81 Bin/LED.o
                                0xf6b (size before relaxing)
 .debug_str     0x00007033       0x57 Bin/Map.o
                                0x2aa (size before relaxing)
 .debug_str     0x0000708a       0x3c Bin/AntennaLevel.o
                               0x1171 (size before relaxing)
 .debug_str     0x000070c6      0x243 Bin/Terminal.o
                               0x1187 (size before relaxing)
 .debug_str     0x00007309      0x86f Bin/Commands.o
                               0x21bc (size before relaxing)
 .debug_str     0x00007b78      0x143 Bin/XModem.o
                                0x681 (size before relaxing)
 .debug_str     0x00007cbb      0x15b Bin/CommandLine.o
                               0x1243 (size before relaxing)
 .debug_str     0x00007e16      0x137 Bin/Codec.o
                               0x1620 (size before relaxing)
 .debug_str     0x00007f4d      0x52f Bin/ISO14443-2A.o
                               0x2e6c (size before relaxing)
 .debug_str     0x0000847c      0x3e0 Bin/Reader14443-2A.o
                               0x2f49 (size before relaxing)
 .debug_str     0x0000885c      0x1ce Bin/SniffISO14443-2A.o
                               0x2ead (size before relaxing)
 .debug_str     0x00008a2a      0x460 Bin/MifareUltralight.o
                               0x1395 (size before relaxing)
 .debug_str     0x00008e8a      0x33f Bin/MifareClassic.o
                               0x133d (size before relaxing)
 .debug_str     0x000091c9      0x104 Bin/ISO14443-3A.o
                                0x39f (size before relaxing)
 .debug_str     0x000092cd      0x177 Bin/Crypto1.o
                               0x10a0 (size before relaxing)
 .debug_str     0x00009444      0x5d3 Bin/Reader14443A.o
                               0x18ee (size before relaxing)
 .debug_str     0x00009a17       0xca Bin/Sniff14443A.o
                               0x113c (size before relaxing)
 .debug_str     0x00009ae1       0x9a Bin/NFC_Command.o
                               0x1238 (size before relaxing)
 .debug_str     0x00009b7b       0x72 Bin/NTAG215.o
                               0x111f (size before relaxing)
 .debug_str     0x00009bed      0x3b1 Bin/ISO15693.o
                               0x2f8d (size before relaxing)
 .debug_str     0x00009f9e      0x126 Bin/Vicinity.o
                                0xfee (size before relaxing)
 .debug_str     0x0000a0c4       0x86 Bin/Sl2s2002.o
                               0x101d (size before relaxing)
 .debug_str     0x0000a14a      0x144 Bin/TITagitstandard.o
                               0x10ac (size before relaxing)
 .debug_str     0x0000a28e       0xa1 Bin/ISO15693-A.o
                                0x395 (size before relaxing)
 .debug_str     0x0000a32f      0x1c4 Bin/EM4233.o
                               0x11d7 (size before relaxing)
 .debug_str     0x0000a4f3      0x68d Bin/DeviceStandardReq.o
                               0x1257 (size before relaxing)
 .debug_str     0x0000ab80       0x31 Bin/Events.o
                                0x205 (size before relaxing)
 .debug_str     0x0000abb1       0x6d Bin/USBTask.o
                                0x4d1 (size before relaxing)
 .debug_str     0x0000ac1e      0x4cd Bin/EndpointStream_XMEGA.o
                                0x9e6 (size before relaxing)
 .debug_str     0x0000b0eb      0x2b3 Bin/Endpoint_XMEGA.o
                                0xb57 (size before relaxing)
 .debug_str     0x0000b39e      0x1d8 Bin/USBController_XMEGA.o
                                0xf05 (size before relaxing)
 .debug_str     0x0000b576       0xaa Bin/USBInterrupt_XMEGA.o
                                0x9b8 (size before relaxing)
 .debug_str     0x0000b620      0x2c0 Bin/CDCClassDevice.o
                                0xbe9 (size before relaxing)

.debug_loc      0x00000000    0x16020
 *(.debug_loc)
 .debug_loc     0x00000000       0x28 Bin/Chameleon-Mini.o
 .debug_loc     0x00000028      0x186 Bin/LUFADescriptors.o
 .debug_loc     0x000001ae       0x97 Bin/System.o
 .debug_loc     0x00000245      0x2fb Bin/Configuration.o
 .debug_loc     0x00000540       0xef Bin/Random.o
 .debug_loc     0x0000062f      0x2a5 Bin/Common.o
 .debug_loc     0x000008d4      0xece Bin/Memory.o
 .debug_loc     0x000017a2      0x5ce Bin/Button.o
 .debug_loc     0x00001d70      0x9da Bin/Log.o
 .debug_loc     0x0000274a      0x32b Bin/Settings.o
 .debug_loc     0x00002a75      0x276 Bin/LED.o
 .debug_loc     0x00002ceb      0x4f6 Bin/Map.o
 .debug_loc     0x000031e1       0x50 Bin/AntennaLevel.o
 .debug_loc     0x00003231      0x258 Bin/Terminal.o
 .debug_loc     0x00003489     0x1b8b Bin/Commands.o
 .debug_loc     0x00005014      0x37e Bin/XModem.o
 .debug_loc     0x00005392      0x69c Bin/CommandLine.o
 .debug_loc     0x00005a2e       0x70 Bin/Codec.o
 .debug_loc     0x00005a9e      0x57c Bin/ISO14443-2A.o
 .debug_loc     0x0000601a      0x4a6 Bin/Reader14443-2A.o
 .debug_loc     0x000064c0      0x558 Bin/SniffISO14443-2A.o
 .debug_loc     0x00006a18      0xe30 Bin/MifareUltralight.o
 .debug_loc     0x00007848     0x12a3 Bin/MifareClassic.o
 .debug_loc     0x00008aeb      0x23f Bin/ISO14443-3A.o
 .debug_loc     0x00008d2a     0x3f58 Bin/Crypto1.o
 .debug_loc     0x0000cc82     0x13a1 Bin/Reader14443A.o
 .debug_loc     0x0000e023      0x15e Bin/Sniff14443A.o
 .debug_loc     0x0000e181      0xe64 Bin/NFC_Command.o
 .debug_loc     0x0000efe5      0xa45 Bin/NTAG215.o
 .debug_loc     0x0000fa2a      0x4e7 Bin/ISO15693.o
 .debug_loc     0x0000ff11      0x2ae Bin/Vicinity.o
 .debug_loc     0x000101bf      0x5ee Bin/Sl2s2002.o
 .debug_loc     0x000107ad      0x4c5 Bin/TITagitstandard.o
 .debug_loc     0x00010c72      0x7ab Bin/ISO15693-A.o
 .debug_loc     0x0001141d     0x133d Bin/EM4233.o
 .debug_loc     0x0001275a      0x292 Bin/DeviceStandardReq.o
 .debug_loc     0x000129ec       0x22 Bin/USBTask.o
 .debug_loc     0x00012a0e     0x2318 Bin/EndpointStream_XMEGA.o
 .debug_loc     0x00014d26      0x458 Bin/Endpoint_XMEGA.o
 .debug_loc     0x0001517e       0xf5 Bin/USBController_XMEGA.o
 .debug_loc     0x00015273      0x1e4 Bin/USBInterrupt_XMEGA.o
 .debug_loc     0x00015457      0xbc9 Bin/CDCClassDevice.o

.debug_macinfo
 *(.debug_macinfo)

.debug_weaknames
 *(.debug_weaknames)

.debug_funcnames
 *(.debug_funcnames)

.debug_typenames
 *(.debug_typenames)

.debug_varnames
 *(.debug_varnames)

.debug_pubtypes
 *(.debug_pubtypes)

.debug_ranges   0x00000000     0x1448
 *(.debug_ranges)
 .debug_ranges  0x00000000       0x40 Bin/Chameleon-Mini.o
 .debug_ranges  0x00000040       0x28 Bin/LUFADescriptors.o
 .debug_ranges  0x00000068       0x48 Bin/System.o
 .debug_ranges  0x000000b0       0x60 Bin/Configuration.o
 .debug_ranges  0x00000110       0x28 Bin/Random.o
 .debug_ranges  0x00000138       0x18 Bin/Common.o
 .debug_ranges  0x00000150       0xe0 Bin/Memory.o
 .debug_ranges  0x00000230       0x20 Bin/MemoryAsm.o
 .debug_ranges  0x00000250       0x58 Bin/Button.o
 .debug_ranges  0x000002a8       0xa8 Bin/Log.o
 .debug_ranges  0x00000350       0x58 Bin/Settings.o
 .debug_ranges  0x000003a8       0x38 Bin/LED.o
 .debug_ranges  0x000003e0       0x38 Bin/Map.o
 .debug_ranges  0x00000418       0x10 Bin/AntennaLevel.o
 .debug_ranges  0x00000428       0x70 Bin/Terminal.o
 .debug_ranges  0x00000498      0x1d8 Bin/Commands.o
 .debug_ranges  0x00000670       0x28 Bin/XModem.o
 .debug_ranges  0x00000698       0xa0 Bin/CommandLine.o
 .debug_ranges  0x00000738       0x48 Bin/Codec.o
 .debug_ranges  0x00000780       0x40 Bin/ISO14443-2A.o
 .debug_ranges  0x000007c0       0x58 Bin/Reader14443-2A.o
 .debug_ranges  0x00000818       0x50 Bin/SniffISO14443-2A.o
 .debug_ranges  0x00000868       0xd8 Bin/MifareUltralight.o
 .debug_ranges  0x00000940      0x148 Bin/MifareClassic.o
 .debug_ranges  0x00000a88       0x18 Bin/ISO14443-3A.o
 .debug_ranges  0x00000aa0       0x78 Bin/Crypto1.o
 .debug_ranges  0x00000b18      0x1d0 Bin/Reader14443A.o
 .debug_ranges  0x00000ce8       0x30 Bin/Sniff14443A.o
 .debug_ranges  0x00000d18       0xa8 Bin/NFC_Command.o
 .debug_ranges  0x00000dc0       0x98 Bin/NTAG215.o
 .debug_ranges  0x00000e58       0x58 Bin/ISO15693.o
 .debug_ranges  0x00000eb0       0x48 Bin/Vicinity.o
 .debug_ranges  0x00000ef8       0x60 Bin/Sl2s2002.o
 .debug_ranges  0x00000f58       0x40 Bin/TITagitstandard.o
 .debug_ranges  0x00000f98       0x30 Bin/ISO15693-A.o
 .debug_ranges  0x00000fc8       0xe0 Bin/EM4233.o
 .debug_ranges  0x000010a8       0x28 Bin/DeviceStandardReq.o
 .debug_ranges  0x000010d0       0x10 Bin/Events.o
 .debug_ranges  0x000010e0       0x28 Bin/USBTask.o
 .debug_ranges  0x00001108      0x1b8 Bin/EndpointStream_XMEGA.o
 .debug_ranges  0x000012c0       0xb0 Bin/Endpoint_XMEGA.o
 .debug_ranges  0x00001370       0x20 Bin/USBController_XMEGA.o
 .debug_ranges  0x00001390       0x20 Bin/USBInterrupt_XMEGA.o
 .debug_ranges  0x000013b0       0x98 Bin/CDCClassDevice.o

.debug_macro
 *(.debug_macro)
OUTPUT(Chameleon-Mini.elf elf32-avr)
LOAD linker stubs

.flashdata      0x00010000    0x10000
 .flashdata     0x00010000    0x10000 Bin/MemoryAsm.o

.spmhelper      0x00021fe0       0x14
 .spmhelper     0x00021fe0       0x14 Bin/MemoryAsm.o

Cross Reference Table

Symbol                                            File
ActiveConfiguration                               Bin/Configuration.o
                                                  Bin/EM4233.o
                                                  Bin/TITagitstandard.o
                                                  Bin/Sl2s2002.o
                                                  Bin/Vicinity.o
                                                  Bin/ISO15693.o
                                                  Bin/NTAG215.o
                                                  Bin/NFC_Command.o
                                                  Bin/Reader14443A.o
                                                  Bin/MifareClassic.o
                                                  Bin/MifareUltralight.o
                                                  Bin/SniffISO14443-2A.o
                                                  Bin/Reader14443-2A.o
                                                  Bin/ISO14443-2A.o
                                                  Bin/Commands.o
                                                  Bin/AntennaLevel.o
                                                  Bin/Button.o
                                                  Bin/Chameleon-Mini.o
AntennaLevelTick                                  Bin/AntennaLevel.o
                                                  Bin/Chameleon-Mini.o
Audio_Device_ConfigureEndpoints                   Bin/AudioClassDevice.o
Audio_Device_Event_Stub                           Bin/AudioClassDevice.o
Audio_Device_ProcessControlRequest                Bin/AudioClassDevice.o
BitReverseByteTable                               Bin/Common.o
                                                  Bin/ISO14443-3A.o
BufferToHexString                                 Bin/Common.o
                                                  Bin/Reader14443A.o
                                                  Bin/CommandLine.o
                                                  Bin/Commands.o
ButtonGetActionByName                             Bin/Button.o
                                                  Bin/Commands.o
ButtonGetActionList                               Bin/Button.o
                                                  Bin/Commands.o
ButtonInit                                        Bin/Button.o
                                                  Bin/Chameleon-Mini.o
ButtonSetActionById                               Bin/Button.o
ButtonSetActionByName                             Bin/Button.o
                                                  Bin/Commands.o
ButtonTick                                        Bin/Button.o
                                                  Bin/Chameleon-Mini.o
CALLBACK_Audio_Device_GetSetEndpointProperty      Bin/AudioClassDevice.o
CALLBACK_Audio_Device_GetSetInterfaceProperty     Bin/AudioClassDevice.o
CALLBACK_HIDParser_FilterHIDReportItem            Bin/HIDParser.o
CALLBACK_HID_Device_CreateHIDReport               Bin/HIDClassDevice.o
CALLBACK_HID_Device_ProcessHIDReport              Bin/HIDClassDevice.o
CALLBACK_MS_Device_SCSICommandReceived            Bin/MassStorageClassDevice.o
CALLBACK_USB_GetDescriptor                        Bin/LUFADescriptors.o
                                                  Bin/DeviceStandardReq.o
CDC_Device_BytesReceived                          Bin/CDCClassDevice.o
CDC_Device_ConfigureEndpoints                     Bin/CDCClassDevice.o
                                                  Bin/Terminal.o
CDC_Device_CreateBlockingStream                   Bin/CDCClassDevice.o
CDC_Device_CreateStream                           Bin/CDCClassDevice.o
CDC_Device_Event_Stub                             Bin/CDCClassDevice.o
CDC_Device_Flush                                  Bin/CDCClassDevice.o
CDC_Device_ProcessControlRequest                  Bin/CDCClassDevice.o
                                                  Bin/Terminal.o
CDC_Device_ReceiveByte                            Bin/CDCClassDevice.o
                                                  Bin/Terminal.o
CDC_Device_SendByte                               Bin/CDCClassDevice.o
                                                  Bin/NFC_Command.o
                                                  Bin/Reader14443A.o
                                                  Bin/XModem.o
                                                  Bin/Terminal.o
                                                  Bin/Log.o
CDC_Device_SendControlLineStateChange             Bin/CDCClassDevice.o
CDC_Device_SendData                               Bin/CDCClassDevice.o
                                                  Bin/Terminal.o
CDC_Device_SendData_P                             Bin/CDCClassDevice.o
CDC_Device_SendString                             Bin/CDCClassDevice.o
                                                  Bin/Terminal.o
CDC_Device_SendString_P                           Bin/CDCClassDevice.o
CDC_Device_USBTask                                Bin/CDCClassDevice.o
                                                  Bin/Terminal.o
CodecBuffer                                       Bin/Codec.o
                                                  Bin/ISO15693.o
                                                  Bin/SniffISO14443-2A.o
                                                  Bin/Reader14443-2A.o
                                                  Bin/ISO14443-2A.o
CodecBuffer2                                      Bin/Codec.o
                                                  Bin/SniffISO14443-2A.o
CodecIsReaderFieldReady                           Bin/Codec.o
                                                  Bin/Reader14443-2A.o
CodecIsReaderToBeRestarted                        Bin/Codec.o
                                                  Bin/Reader14443-2A.o
CodecReaderFieldRestart                           Bin/Codec.o
CodecReaderFieldStart                             Bin/Codec.o
                                                  Bin/Reader14443-2A.o
                                                  Bin/Commands.o
                                                  Bin/Button.o
CodecReaderFieldStop                              Bin/Codec.o
                                                  Bin/Reader14443A.o
                                                  Bin/Reader14443-2A.o
                                                  Bin/Commands.o
                                                  Bin/Button.o
CodecThresholdIncrement                           Bin/Codec.o
                                                  Bin/Sniff14443A.o
                                                  Bin/Reader14443A.o
CodecThresholdReset                               Bin/Codec.o
                                                  Bin/Reader14443A.o
CodecThresholdSet                                 Bin/Codec.o
                                                  Bin/Reader14443A.o
CommandExecAutocalibrate                          Bin/Commands.o
                                                  Bin/CommandLine.o
CommandExecClear                                  Bin/Commands.o
                                                  Bin/CommandLine.o
CommandExecClone                                  Bin/Commands.o
                                                  Bin/CommandLine.o
CommandExecCloneMFU                               Bin/Commands.o
                                                  Bin/CommandLine.o
CommandExecDownload                               Bin/Commands.o
                                                  Bin/CommandLine.o
CommandExecDumpMFU                                Bin/Commands.o
                                                  Bin/CommandLine.o
CommandExecGetUid                                 Bin/Commands.o
                                                  Bin/CommandLine.o
CommandExecHelp                                   Bin/Commands.o
                                                  Bin/CommandLine.o
CommandExecIdentifyCard                           Bin/Commands.o
                                                  Bin/CommandLine.o
CommandExecLogClear                               Bin/Commands.o
                                                  Bin/CommandLine.o
CommandExecLogDownload                            Bin/Commands.o
                                                  Bin/CommandLine.o
CommandExecParamSend                              Bin/Commands.o
                                                  Bin/CommandLine.o
CommandExecParamSendRaw                           Bin/Commands.o
                                                  Bin/CommandLine.o
CommandExecRecall                                 Bin/Commands.o
                                                  Bin/CommandLine.o
CommandExecReset                                  Bin/Commands.o
                                                  Bin/CommandLine.o
CommandExecStore                                  Bin/Commands.o
                                                  Bin/CommandLine.o
CommandExecStoreLog                               Bin/Commands.o
                                                  Bin/CommandLine.o
CommandExecUpgrade                                Bin/Commands.o
                                                  Bin/CommandLine.o
CommandExecUpload                                 Bin/Commands.o
                                                  Bin/CommandLine.o
CommandExecute                                    Bin/CommandLine.o
                                                  Bin/Button.o
CommandGetCharging                                Bin/Commands.o
                                                  Bin/CommandLine.o
CommandGetConfig                                  Bin/Commands.o
                                                  Bin/CommandLine.o
CommandGetField                                   Bin/Commands.o
                                                  Bin/CommandLine.o
CommandGetLButton                                 Bin/Commands.o
                                                  Bin/CommandLine.o
CommandGetLButtonLong                             Bin/Commands.o
                                                  Bin/CommandLine.o
CommandGetLedGreen                                Bin/Commands.o
                                                  Bin/CommandLine.o
CommandGetLedRed                                  Bin/Commands.o
                                                  Bin/CommandLine.o
CommandGetLogMem                                  Bin/Commands.o
                                                  Bin/CommandLine.o
CommandGetLogMode                                 Bin/Commands.o
                                                  Bin/CommandLine.o
CommandGetMemSize                                 Bin/Commands.o
                                                  Bin/CommandLine.o
CommandGetRButton                                 Bin/Commands.o
                                                  Bin/CommandLine.o
CommandGetRButtonLong                             Bin/Commands.o
                                                  Bin/CommandLine.o
CommandGetReadOnly                                Bin/Commands.o
                                                  Bin/CommandLine.o
CommandGetRssi                                    Bin/Commands.o
                                                  Bin/CommandLine.o
CommandGetSetting                                 Bin/Commands.o
                                                  Bin/CommandLine.o
CommandGetSysTick                                 Bin/Commands.o
                                                  Bin/CommandLine.o
CommandGetThreshold                               Bin/Commands.o
                                                  Bin/CommandLine.o
CommandGetTimeout                                 Bin/Commands.o
                                                  Bin/CommandLine.o
CommandGetUid                                     Bin/Commands.o
                                                  Bin/CommandLine.o
CommandGetUidSize                                 Bin/Commands.o
                                                  Bin/CommandLine.o
CommandGetVersion                                 Bin/Commands.o
                                                  Bin/CommandLine.o
CommandLineAppendData                             Bin/CommandLine.o
                                                  Bin/Reader14443A.o
CommandLineInit                                   Bin/CommandLine.o
CommandLinePendingTaskBreak                       Bin/CommandLine.o
                                                  Bin/Settings.o
                                                  Bin/Configuration.o
CommandLinePendingTaskFinished                    Bin/CommandLine.o
                                                  Bin/Sniff14443A.o
                                                  Bin/Reader14443A.o
CommandLinePendingTaskTimeout                     Bin/CommandLine.o
                                                  Bin/Commands.o
CommandLineProcessByte                            Bin/CommandLine.o
                                                  Bin/NFC_Command.o
                                                  Bin/Terminal.o
CommandLineTick                                   Bin/CommandLine.o
                                                  Bin/Terminal.o
                                                  Bin/Chameleon-Mini.o
CommandSetConfig                                  Bin/Commands.o
                                                  Bin/CommandLine.o
CommandSetField                                   Bin/Commands.o
                                                  Bin/CommandLine.o
CommandSetLButton                                 Bin/Commands.o
                                                  Bin/CommandLine.o
CommandSetLButtonLong                             Bin/Commands.o
                                                  Bin/CommandLine.o
CommandSetLedGreen                                Bin/Commands.o
                                                  Bin/CommandLine.o
CommandSetLedRed                                  Bin/Commands.o
                                                  Bin/CommandLine.o
CommandSetLogMode                                 Bin/Commands.o
                                                  Bin/CommandLine.o
CommandSetRButton                                 Bin/Commands.o
                                                  Bin/CommandLine.o
CommandSetRButtonLong                             Bin/Commands.o
                                                  Bin/CommandLine.o
CommandSetReadOnly                                Bin/Commands.o
                                                  Bin/CommandLine.o
CommandSetSetting                                 Bin/Commands.o
                                                  Bin/CommandLine.o
CommandSetThreshold                               Bin/Commands.o
                                                  Bin/CommandLine.o
CommandSetTimeout                                 Bin/Commands.o
                                                  Bin/CommandLine.o
CommandSetUid                                     Bin/Commands.o
                                                  Bin/CommandLine.o
CommandTable                                      Bin/CommandLine.o
                                                  Bin/Commands.o
CommandTest                                       Bin/Commands.o
                                                  Bin/CommandLine.o
ConfigurationDescriptor                           Bin/LUFADescriptors.o
ConfigurationGetByName                            Bin/Configuration.o
                                                  Bin/Commands.o
ConfigurationGetList                              Bin/Configuration.o
                                                  Bin/Commands.o
ConfigurationInit                                 Bin/Configuration.o
                                                  Bin/Chameleon-Mini.o
ConfigurationSetById                              Bin/Configuration.o
                                                  Bin/Reader14443A.o
                                                  Bin/Commands.o
                                                  Bin/Settings.o
ConfigurationSetByName                            Bin/Configuration.o
                                                  Bin/Commands.o
Crypto1Auth                                       Bin/Crypto1.o
                                                  Bin/MifareClassic.o
Crypto1ByteArray                                  Bin/Crypto1.o
                                                  Bin/MifareClassic.o
Crypto1ByteArrayWithParity                        Bin/Crypto1.o
                                                  Bin/MifareClassic.o
Crypto1EncryptWithParity                          Bin/Crypto1.o
Crypto1FilterOutput                               Bin/Crypto1.o
Crypto1GetState                                   Bin/Crypto1.o
Crypto1Nibble                                     Bin/Crypto1.o
                                                  Bin/MifareClassic.o
Crypto1PRNG                                       Bin/Crypto1.o
                                                  Bin/MifareClassic.o
Crypto1ReaderAuthWithParity                       Bin/Crypto1.o
Crypto1Setup                                      Bin/Crypto1.o
                                                  Bin/MifareClassic.o
Crypto1SetupNested                                Bin/Crypto1.o
                                                  Bin/MifareClassic.o
CryptoDecrypt2KTDEA                               Bin/CryptoTDEA.o
CryptoDecrypt2KTDEA_CBCReceive                    Bin/CryptoTDEA.o
                                                  Bin/NFC_Command.o
                                                  Bin/MifareUltralight.o
CryptoDecrypt2KTDEA_CBCSend                       Bin/CryptoTDEA.o
CryptoEncrypt2KTDEA                               Bin/CryptoTDEA.o
CryptoEncrypt2KTDEA_CBCReceive                    Bin/CryptoTDEA.o
CryptoEncrypt2KTDEA_CBCSend                       Bin/CryptoTDEA.o
                                                  Bin/MifareUltralight.o
CryptoEncrypt3KTDEA_CBCReceive                    Bin/CryptoTDEA.o
CryptoEncrypt3KTDEA_CBCSend                       Bin/CryptoTDEA.o
CurrentLogFunc                                    Bin/Log.o
                                                  Bin/ISO15693.o
                                                  Bin/Reader14443A.o
                                                  Bin/MifareClassic.o
                                                  Bin/SniffISO14443-2A.o
                                                  Bin/Reader14443-2A.o
                                                  Bin/ISO14443-2A.o
                                                  Bin/Commands.o
                                                  Bin/Settings.o
                                                  Bin/Button.o
                                                  Bin/Configuration.o
DeviceDescriptor                                  Bin/LUFADescriptors.o
EM4233AppInit                                     Bin/EM4233.o
                                                  Bin/Configuration.o
EM4233AppProcess                                  Bin/EM4233.o
                                                  Bin/Configuration.o
EM4233AppReset                                    Bin/EM4233.o
                                                  Bin/Configuration.o
EM4233AppTask                                     Bin/EM4233.o
                                                  Bin/Configuration.o
EM4233AppTick                                     Bin/EM4233.o
                                                  Bin/Configuration.o
EM4233GetUid                                      Bin/EM4233.o
                                                  Bin/Configuration.o
EM4233SetUid                                      Bin/EM4233.o
                                                  Bin/Configuration.o
EM4233_Auth1                                      Bin/EM4233.o
EM4233_Auth2                                      Bin/EM4233.o
EM4233_Get_Multi_Block_Sec_Stat                   Bin/EM4233.o
EM4233_Get_SysInfo                                Bin/EM4233.o
EM4233_Lock_AFI                                   Bin/EM4233.o
EM4233_Lock_Block                                 Bin/EM4233.o
EM4233_Lock_DSFID                                 Bin/EM4233.o
EM4233_Login                                      Bin/EM4233.o
EM4233_Read_Multiple                              Bin/EM4233.o
EM4233_Read_Single                                Bin/EM4233.o
EM4233_Reset_To_Ready                             Bin/EM4233.o
EM4233_Select                                     Bin/EM4233.o
EM4233_Write_AFI                                  Bin/EM4233.o
EM4233_Write_DSFID                                Bin/EM4233.o
EM4233_Write_Single                               Bin/EM4233.o
EVENT_Audio_Device_StreamStartStop                Bin/AudioClassDevice.o
EVENT_CDC_Device_BreakSent                        Bin/CDCClassDevice.o
EVENT_CDC_Device_ControLineStateChanged           Bin/CDCClassDevice.o
EVENT_CDC_Device_LineEncodingChanged              Bin/CDCClassDevice.o
EVENT_PRNT_Device_SoftReset                       Bin/PrinterClassDevice.o
EVENT_USB_Device_ConfigurationChanged             Bin/Terminal.o
                                                  Bin/DeviceStandardReq.o
EVENT_USB_Device_Connect                          Bin/Terminal.o
                                                  Bin/USBInterrupt_XMEGA.o
EVENT_USB_Device_ControlRequest                   Bin/Terminal.o
                                                  Bin/DeviceStandardReq.o
EVENT_USB_Device_Disconnect                       Bin/Terminal.o
                                                  Bin/USBInterrupt_XMEGA.o
EVENT_USB_Device_Reset                            Bin/Events.o
                                                  Bin/USBInterrupt_XMEGA.o
EVENT_USB_Device_StartOfFrame                     Bin/Events.o
                                                  Bin/USBInterrupt_XMEGA.o
EVENT_USB_Device_Suspend                          Bin/Events.o
EVENT_USB_Device_WakeUp                           Bin/Events.o
Endpoint_ClearEndpoints                           Bin/Endpoint_XMEGA.o
                                                  Bin/USBInterrupt_XMEGA.o
Endpoint_ClearIN                                  Bin/Endpoint_XMEGA.o
                                                  Bin/RNDISClassDevice.o
                                                  Bin/PrinterClassDevice.o
                                                  Bin/MIDIClassDevice.o
                                                  Bin/MassStorageClassDevice.o
                                                  Bin/HIDClassDevice.o
                                                  Bin/CDCClassDevice.o
                                                  Bin/AudioClassDevice.o
                                                  Bin/EndpointStream_XMEGA.o
                                                  Bin/DeviceStandardReq.o
Endpoint_ClearOUT                                 Bin/Endpoint_XMEGA.o
                                                  Bin/RNDISClassDevice.o
                                                  Bin/PrinterClassDevice.o
                                                  Bin/MIDIClassDevice.o
                                                  Bin/MassStorageClassDevice.o
                                                  Bin/HIDClassDevice.o
                                                  Bin/CDCClassDevice.o
                                                  Bin/AudioClassDevice.o
                                                  Bin/EndpointStream_XMEGA.o
                                                  Bin/DeviceStandardReq.o
Endpoint_ClearSETUP                               Bin/Endpoint_XMEGA.o
                                                  Bin/RNDISClassDevice.o
                                                  Bin/PrinterClassDevice.o
                                                  Bin/MassStorageClassDevice.o
                                                  Bin/HIDClassDevice.o
                                                  Bin/CDCClassDevice.o
                                                  Bin/AudioClassDevice.o
                                                  Bin/DeviceStandardReq.o
Endpoint_ClearStatusStage                         Bin/Endpoint_XMEGA.o
                                                  Bin/PrinterClassDevice.o
                                                  Bin/MassStorageClassDevice.o
                                                  Bin/HIDClassDevice.o
                                                  Bin/CDCClassDevice.o
                                                  Bin/AudioClassDevice.o
                                                  Bin/DeviceStandardReq.o
Endpoint_ConfigureEndpointTable                   Bin/Endpoint_XMEGA.o
                                                  Bin/RNDISClassDevice.o
                                                  Bin/PrinterClassDevice.o
                                                  Bin/MIDIClassDevice.o
                                                  Bin/MassStorageClassDevice.o
                                                  Bin/HIDClassDevice.o
                                                  Bin/CDCClassDevice.o
                                                  Bin/AudioClassDevice.o
Endpoint_ConfigureEndpoint_PRV                    Bin/Endpoint_XMEGA.o
                                                  Bin/USBInterrupt_XMEGA.o
                                                  Bin/USBController_XMEGA.o
Endpoint_Discard_Stream                           Bin/EndpointStream_XMEGA.o
Endpoint_IsINReady                                Bin/Endpoint_XMEGA.o
                                                  Bin/RNDISClassDevice.o
                                                  Bin/PrinterClassDevice.o
                                                  Bin/MIDIClassDevice.o
                                                  Bin/MassStorageClassDevice.o
                                                  Bin/HIDClassDevice.o
                                                  Bin/CDCClassDevice.o
                                                  Bin/EndpointStream_XMEGA.o
                                                  Bin/DeviceStandardReq.o
Endpoint_IsOUTReceived                            Bin/Endpoint_XMEGA.o
                                                  Bin/RNDISClassDevice.o
                                                  Bin/PrinterClassDevice.o
                                                  Bin/MIDIClassDevice.o
                                                  Bin/MassStorageClassDevice.o
                                                  Bin/CDCClassDevice.o
                                                  Bin/EndpointStream_XMEGA.o
Endpoint_IsSETUPReceived                          Bin/Endpoint_XMEGA.o
                                                  Bin/RNDISClassDevice.o
                                                  Bin/PrinterClassDevice.o
                                                  Bin/MassStorageClassDevice.o
                                                  Bin/HIDClassDevice.o
                                                  Bin/CDCClassDevice.o
                                                  Bin/AudioClassDevice.o
                                                  Bin/EndpointStream_XMEGA.o
                                                  Bin/USBTask.o
                                                  Bin/DeviceStandardReq.o
Endpoint_Null_Stream                              Bin/EndpointStream_XMEGA.o
Endpoint_Read_8                                   Bin/Endpoint_XMEGA.o
                                                  Bin/PrinterClassDevice.o
                                                  Bin/CDCClassDevice.o
                                                  Bin/EndpointStream_XMEGA.o
                                                  Bin/DeviceStandardReq.o
Endpoint_Read_Control_EStream_BE                  Bin/EndpointStream_XMEGA.o
Endpoint_Read_Control_EStream_LE                  Bin/EndpointStream_XMEGA.o
Endpoint_Read_Control_Stream_BE                   Bin/EndpointStream_XMEGA.o
Endpoint_Read_Control_Stream_LE                   Bin/EndpointStream_XMEGA.o
                                                  Bin/RNDISClassDevice.o
                                                  Bin/HIDClassDevice.o
                                                  Bin/AudioClassDevice.o
Endpoint_Read_EStream_BE                          Bin/EndpointStream_XMEGA.o
Endpoint_Read_EStream_LE                          Bin/EndpointStream_XMEGA.o
Endpoint_Read_Stream_BE                           Bin/EndpointStream_XMEGA.o
Endpoint_Read_Stream_LE                           Bin/EndpointStream_XMEGA.o
                                                  Bin/RNDISClassDevice.o
                                                  Bin/MIDIClassDevice.o
                                                  Bin/MassStorageClassDevice.o
Endpoint_SelectEndpoint                           Bin/Endpoint_XMEGA.o
                                                  Bin/RNDISClassDevice.o
                                                  Bin/PrinterClassDevice.o
                                                  Bin/MIDIClassDevice.o
                                                  Bin/MassStorageClassDevice.o
                                                  Bin/HIDClassDevice.o
                                                  Bin/CDCClassDevice.o
                                                  Bin/EndpointStream_XMEGA.o
                                                  Bin/USBTask.o
                                                  Bin/DeviceStandardReq.o
Endpoint_StallTransaction                         Bin/Endpoint_XMEGA.o
                                                  Bin/RNDISClassDevice.o
                                                  Bin/MassStorageClassDevice.o
                                                  Bin/DeviceStandardReq.o
Endpoint_WaitUntilReady                           Bin/Endpoint_XMEGA.o
                                                  Bin/RNDISClassDevice.o
                                                  Bin/PrinterClassDevice.o
                                                  Bin/MIDIClassDevice.o
                                                  Bin/CDCClassDevice.o
                                                  Bin/EndpointStream_XMEGA.o
Endpoint_Write_8                                  Bin/Endpoint_XMEGA.o
                                                  Bin/PrinterClassDevice.o
                                                  Bin/MassStorageClassDevice.o
                                                  Bin/HIDClassDevice.o
                                                  Bin/CDCClassDevice.o
                                                  Bin/EndpointStream_XMEGA.o
                                                  Bin/DeviceStandardReq.o
Endpoint_Write_Control_EStream_BE                 Bin/EndpointStream_XMEGA.o
Endpoint_Write_Control_EStream_LE                 Bin/EndpointStream_XMEGA.o
Endpoint_Write_Control_PStream_BE                 Bin/EndpointStream_XMEGA.o
Endpoint_Write_Control_PStream_LE                 Bin/EndpointStream_XMEGA.o
                                                  Bin/DeviceStandardReq.o
Endpoint_Write_Control_Stream_BE                  Bin/EndpointStream_XMEGA.o
Endpoint_Write_Control_Stream_LE                  Bin/EndpointStream_XMEGA.o
                                                  Bin/RNDISClassDevice.o
                                                  Bin/PrinterClassDevice.o
                                                  Bin/HIDClassDevice.o
                                                  Bin/AudioClassDevice.o
                                                  Bin/DeviceStandardReq.o
Endpoint_Write_EStream_BE                         Bin/EndpointStream_XMEGA.o
Endpoint_Write_EStream_LE                         Bin/EndpointStream_XMEGA.o
Endpoint_Write_PStream_BE                         Bin/EndpointStream_XMEGA.o
Endpoint_Write_PStream_LE                         Bin/EndpointStream_XMEGA.o
                                                  Bin/CDCClassDevice.o
Endpoint_Write_Stream_BE                          Bin/EndpointStream_XMEGA.o
Endpoint_Write_Stream_LE                          Bin/EndpointStream_XMEGA.o
                                                  Bin/RNDISClassDevice.o
                                                  Bin/PrinterClassDevice.o
                                                  Bin/MIDIClassDevice.o
                                                  Bin/MassStorageClassDevice.o
                                                  Bin/HIDClassDevice.o
                                                  Bin/CDCClassDevice.o
FactoryLockBits_Mask                              Bin/TITagitstandard.o
FlashEraseApplicationPage                         Bin/MemoryAsm.o
                                                  Bin/Memory.o
FlashEraseFlashBuffer                             Bin/MemoryAsm.o
                                                  Bin/Memory.o
FlashEraseWriteApplicationPage                    Bin/MemoryAsm.o
                                                  Bin/Memory.o
FlashLoadFlashWord                                Bin/MemoryAsm.o
                                                  Bin/Memory.o
FlashReadWord                                     Bin/MemoryAsm.o
                                                  Bin/Memory.o
FlashWaitForSPM                                   Bin/MemoryAsm.o
                                                  Bin/Memory.o
FlushNVMBuffer                                    Bin/Memory.o
FrameInfo                                         Bin/EM4233.o
                                                  Bin/TITagitstandard.o
GlobalSettings                                    Bin/Settings.o
                                                  Bin/ISO15693.o
                                                  Bin/Sniff14443A.o
                                                  Bin/Reader14443A.o
                                                  Bin/SniffISO14443-2A.o
                                                  Bin/Reader14443-2A.o
                                                  Bin/ISO14443-2A.o
                                                  Bin/Codec.o
                                                  Bin/CommandLine.o
                                                  Bin/Commands.o
                                                  Bin/Terminal.o
                                                  Bin/AntennaLevel.o
                                                  Bin/LED.o
                                                  Bin/Log.o
                                                  Bin/Button.o
                                                  Bin/Memory.o
                                                  Bin/Configuration.o
                                                  Bin/Chameleon-Mini.o
HID_Device_ConfigureEndpoints                     Bin/HIDClassDevice.o
HID_Device_ProcessControlRequest                  Bin/HIDClassDevice.o
HID_Device_USBTask                                Bin/HIDClassDevice.o
HexStringToBuffer                                 Bin/Common.o
                                                  Bin/Commands.o
ISO14443AAppendCRCA                               Bin/ISO14443-3A.o
                                                  Bin/NTAG215.o
                                                  Bin/NFC_Command.o
                                                  Bin/Reader14443A.o
                                                  Bin/MifareClassic.o
                                                  Bin/MifareUltralight.o
ISO14443ACheckCRCA                                Bin/ISO14443-3A.o
                                                  Bin/NTAG215.o
                                                  Bin/NFC_Command.o
                                                  Bin/MifareClassic.o
                                                  Bin/MifareUltralight.o
ISO14443ACodecDeInit                              Bin/ISO14443-2A.o
                                                  Bin/Configuration.o
ISO14443ACodecInit                                Bin/ISO14443-2A.o
                                                  Bin/Configuration.o
ISO14443ACodecTask                                Bin/ISO14443-2A.o
                                                  Bin/Configuration.o
ISO14443_CRCA                                     Bin/Reader14443A.o
ISO15693AntiColl                                  Bin/ISO15693-A.o
                                                  Bin/EM4233.o
ISO15693AppendCRC                                 Bin/ISO15693-A.o
                                                  Bin/EM4233.o
                                                  Bin/TITagitstandard.o
                                                  Bin/Sl2s2002.o
                                                  Bin/Vicinity.o
ISO15693CheckCRC                                  Bin/ISO15693-A.o
                                                  Bin/EM4233.o
                                                  Bin/TITagitstandard.o
                                                  Bin/Sl2s2002.o
                                                  Bin/Vicinity.o
ISO15693CodecDeInit                               Bin/ISO15693.o
                                                  Bin/Configuration.o
ISO15693CodecInit                                 Bin/ISO15693.o
                                                  Bin/Configuration.o
ISO15693CodecTask                                 Bin/ISO15693.o
                                                  Bin/Configuration.o
ISO15693PrepareFrame                              Bin/ISO15693-A.o
                                                  Bin/EM4233.o
                                                  Bin/TITagitstandard.o
LEDGetFuncByName                                  Bin/LED.o
                                                  Bin/Commands.o
LEDGetFuncList                                    Bin/LED.o
                                                  Bin/Commands.o
LEDGreenAction                                    Bin/LED.o
                                                  Bin/ISO15693.o
                                                  Bin/Reader14443A.o
                                                  Bin/SniffISO14443-2A.o
                                                  Bin/Reader14443-2A.o
                                                  Bin/ISO14443-2A.o
                                                  Bin/Terminal.o
                                                  Bin/AntennaLevel.o
                                                  Bin/Settings.o
                                                  Bin/Log.o
                                                  Bin/Memory.o
                                                  Bin/Chameleon-Mini.o
LEDInit                                           Bin/LED.o
                                                  Bin/Chameleon-Mini.o
LEDRedAction                                      Bin/LED.o
                                                  Bin/ISO15693.o
                                                  Bin/Reader14443A.o
                                                  Bin/SniffISO14443-2A.o
                                                  Bin/Reader14443-2A.o
                                                  Bin/ISO14443-2A.o
                                                  Bin/Terminal.o
                                                  Bin/AntennaLevel.o
                                                  Bin/Settings.o
                                                  Bin/Log.o
                                                  Bin/Memory.o
                                                  Bin/Chameleon-Mini.o
LEDSetFuncById                                    Bin/LED.o
LEDSetFuncByName                                  Bin/LED.o
                                                  Bin/Commands.o
LEDTick                                           Bin/LED.o
                                                  Bin/Chameleon-Mini.o
LanguageString                                    Bin/LUFADescriptors.o
LogGetModeByName                                  Bin/Log.o
                                                  Bin/Commands.o
LogGetModeList                                    Bin/Log.o
                                                  Bin/Commands.o
LogInit                                           Bin/Log.o
                                                  Bin/Chameleon-Mini.o
LogMemClear                                       Bin/Log.o
                                                  Bin/Commands.o
LogMemFree                                        Bin/Log.o
                                                  Bin/Commands.o
LogMemLoadBlock                                   Bin/Log.o
                                                  Bin/Commands.o
LogSRAMToFRAM                                     Bin/Log.o
                                                  Bin/Commands.o
                                                  Bin/Button.o
LogSetModeById                                    Bin/Log.o
                                                  Bin/Settings.o
LogSetModeByName                                  Bin/Log.o
                                                  Bin/Commands.o
LogTask                                           Bin/Log.o
                                                  Bin/Chameleon-Mini.o
LogTick                                           Bin/Log.o
                                                  Bin/Chameleon-Mini.o
MIDI_Device_ConfigureEndpoints                    Bin/MIDIClassDevice.o
MIDI_Device_Flush                                 Bin/MIDIClassDevice.o
MIDI_Device_ReceiveEventPacket                    Bin/MIDIClassDevice.o
MIDI_Device_SendEventPacket                       Bin/MIDIClassDevice.o
MIDI_Device_USBTask                               Bin/MIDIClassDevice.o
MS_Device_ConfigureEndpoints                      Bin/MassStorageClassDevice.o
MS_Device_ProcessControlRequest                   Bin/MassStorageClassDevice.o
MS_Device_USBTask                                 Bin/MassStorageClassDevice.o
ManufacturerString                                Bin/LUFADescriptors.o
MapIdToText                                       Bin/Map.o
                                                  Bin/LED.o
                                                  Bin/Log.o
                                                  Bin/Button.o
                                                  Bin/Configuration.o
MapTextToId                                       Bin/Map.o
                                                  Bin/LED.o
                                                  Bin/Log.o
                                                  Bin/Button.o
                                                  Bin/Configuration.o
MapToString                                       Bin/Map.o
                                                  Bin/LED.o
                                                  Bin/Log.o
                                                  Bin/Button.o
                                                  Bin/Configuration.o
MemoryClear                                       Bin/Memory.o
                                                  Bin/Commands.o
MemoryDownloadBlock                               Bin/Memory.o
                                                  Bin/Commands.o
MemoryInit                                        Bin/Memory.o
                                                  Bin/Chameleon-Mini.o
MemoryReadBlock                                   Bin/Memory.o
                                                  Bin/EM4233.o
                                                  Bin/TITagitstandard.o
                                                  Bin/Sl2s2002.o
                                                  Bin/Vicinity.o
                                                  Bin/NTAG215.o
                                                  Bin/NFC_Command.o
                                                  Bin/MifareClassic.o
                                                  Bin/MifareUltralight.o
                                                  Bin/Log.o
MemoryRecall                                      Bin/Memory.o
                                                  Bin/Commands.o
                                                  Bin/Settings.o
                                                  Bin/Button.o
MemoryStore                                       Bin/Memory.o
                                                  Bin/Reader14443A.o
                                                  Bin/Commands.o
                                                  Bin/Settings.o
                                                  Bin/Button.o
MemoryUploadBlock                                 Bin/Memory.o
                                                  Bin/Reader14443A.o
                                                  Bin/Commands.o
MemoryWriteBlock                                  Bin/Memory.o
                                                  Bin/EM4233.o
                                                  Bin/TITagitstandard.o
                                                  Bin/Sl2s2002.o
                                                  Bin/Vicinity.o
                                                  Bin/NTAG215.o
                                                  Bin/NFC_Command.o
                                                  Bin/MifareClassic.o
                                                  Bin/MifareUltralight.o
                                                  Bin/Log.o
MifareClassicAppInit1K                            Bin/MifareClassic.o
                                                  Bin/Configuration.o
MifareClassicAppInit1K7B                          Bin/MifareClassic.o
                                                  Bin/Configuration.o
MifareClassicAppInit4K                            Bin/MifareClassic.o
                                                  Bin/Configuration.o
MifareClassicAppInit4K7B                          Bin/MifareClassic.o
                                                  Bin/Configuration.o
MifareClassicAppInitMini4B                        Bin/MifareClassic.o
                                                  Bin/Configuration.o
MifareClassicAppProcess                           Bin/MifareClassic.o
                                                  Bin/Configuration.o
MifareClassicAppReset                             Bin/MifareClassic.o
                                                  Bin/Configuration.o
MifareClassicAppTask                              Bin/MifareClassic.o
                                                  Bin/Configuration.o
MifareClassicGetUid                               Bin/MifareClassic.o
                                                  Bin/Configuration.o
MifareClassicSetUid                               Bin/MifareClassic.o
                                                  Bin/Configuration.o
MifareUltralightAppInit                           Bin/MifareUltralight.o
                                                  Bin/Configuration.o
MifareUltralightAppProcess                        Bin/MifareUltralight.o
                                                  Bin/Configuration.o
MifareUltralightAppReset                          Bin/MifareUltralight.o
                                                  Bin/Configuration.o
MifareUltralightAppTask                           Bin/MifareUltralight.o
                                                  Bin/Configuration.o
MifareUltralightCAppInit                          Bin/MifareUltralight.o
                                                  Bin/Configuration.o
MifareUltralightCAppReset                         Bin/MifareUltralight.o
                                                  Bin/Configuration.o
MifareUltralightEV11AppInit                       Bin/MifareUltralight.o
                                                  Bin/Configuration.o
MifareUltralightEV12AppInit                       Bin/MifareUltralight.o
                                                  Bin/Configuration.o
MifareUltralightGetUid                            Bin/MifareUltralight.o
                                                  Bin/Configuration.o
MifareUltralightSetUid                            Bin/MifareUltralight.o
                                                  Bin/Configuration.o
MyAFI                                             Bin/EM4233.o
                                                  Bin/TITagitstandard.o
NFCAnswer                                         Bin/NFC_Command.o
NFCCommandAppInit                                 Bin/NFC_Command.o
                                                  Bin/Configuration.o
NFCCommandAppProcess                              Bin/NFC_Command.o
                                                  Bin/Configuration.o
NFCCommandAppReset                                Bin/NFC_Command.o
                                                  Bin/Configuration.o
NFCCommandAppTask                                 Bin/NFC_Command.o
                                                  Bin/Configuration.o
NFCResponse                                       Bin/CommandLine.o
                                                  Bin/NFC_Command.o
NFCStatusId                                       Bin/NFC_Command.o
                                                  Bin/CommandLine.o
NTAG215AppInit                                    Bin/NTAG215.o
                                                  Bin/Configuration.o
NTAG215AppProcess                                 Bin/NTAG215.o
                                                  Bin/Configuration.o
NTAG215AppReset                                   Bin/NTAG215.o
                                                  Bin/Configuration.o
NTAG215AppTask                                    Bin/NTAG215.o
                                                  Bin/Configuration.o
NTAG215GetUid                                     Bin/NTAG215.o
                                                  Bin/Configuration.o
NTAG215SetUid                                     Bin/NTAG215.o
                                                  Bin/Configuration.o
OddParityByteTable                                Bin/Common.o
                                                  Bin/Reader14443A.o
                                                  Bin/Crypto1.o
PRNT_Device_BytesReceived                         Bin/PrinterClassDevice.o
PRNT_Device_ConfigureEndpoints                    Bin/PrinterClassDevice.o
PRNT_Device_CreateBlockingStream                  Bin/PrinterClassDevice.o
PRNT_Device_CreateStream                          Bin/PrinterClassDevice.o
PRNT_Device_Event_Stub                            Bin/PrinterClassDevice.o
PRNT_Device_Flush                                 Bin/PrinterClassDevice.o
PRNT_Device_ProcessControlRequest                 Bin/PrinterClassDevice.o
PRNT_Device_ReceiveByte                           Bin/PrinterClassDevice.o
PRNT_Device_SendByte                              Bin/PrinterClassDevice.o
PRNT_Device_SendData                              Bin/PrinterClassDevice.o
PRNT_Device_SendString                            Bin/PrinterClassDevice.o
PRNT_Device_USBTask                               Bin/PrinterClassDevice.o
ProductString                                     Bin/LUFADescriptors.o
RNDIS_Device_ConfigureEndpoints                   Bin/RNDISClassDevice.o
RNDIS_Device_IsPacketReceived                     Bin/RNDISClassDevice.o
RNDIS_Device_ProcessControlRequest                Bin/RNDISClassDevice.o
RNDIS_Device_ReadPacket                           Bin/RNDISClassDevice.o
RNDIS_Device_SendPacket                           Bin/RNDISClassDevice.o
RNDIS_Device_USBTask                              Bin/RNDISClassDevice.o
RandomGetBuffer                                   Bin/Random.o
                                                  Bin/EM4233.o
                                                  Bin/MifareClassic.o
                                                  Bin/MifareUltralight.o
RandomGetByte                                     Bin/Random.o
                                                  Bin/Commands.o
                                                  Bin/Button.o
RandomInit                                        Bin/Random.o
                                                  Bin/Chameleon-Mini.o
RandomTick                                        Bin/Random.o
                                                  Bin/Chameleon-Mini.o
ReadEEPBlock                                      Bin/Memory.o
                                                  Bin/Settings.o
                                                  Bin/Log.o
Reader14443AAppInit                               Bin/Reader14443A.o
                                                  Bin/Commands.o
                                                  Bin/Configuration.o
Reader14443AAppProcess                            Bin/Reader14443A.o
                                                  Bin/Configuration.o
Reader14443AAppReset                              Bin/Reader14443A.o
                                                  Bin/Configuration.o
Reader14443AAppTask                               Bin/Reader14443A.o
                                                  Bin/Configuration.o
Reader14443AAppTick                               Bin/Reader14443A.o
                                                  Bin/Configuration.o
Reader14443AAppTimeout                            Bin/Reader14443A.o
                                                  Bin/Commands.o
Reader14443ACodecDeInit                           Bin/Reader14443-2A.o
                                                  Bin/Configuration.o
Reader14443ACodecInit                             Bin/Reader14443-2A.o
                                                  Bin/Configuration.o
Reader14443ACodecReset                            Bin/Reader14443-2A.o
                                                  Bin/Reader14443A.o
Reader14443ACodecStart                            Bin/Reader14443-2A.o
                                                  Bin/Reader14443A.o
                                                  Bin/Commands.o
Reader14443ACodecTask                             Bin/Reader14443-2A.o
                                                  Bin/Configuration.o
Reader14443AMillerEOC                             Bin/Reader14443-2A.o
                                                  Bin/Reader14443-ISR.o
Reader14443CurrentCommand                         Bin/Reader14443A.o
                                                  Bin/Commands.o
ReaderSendBitCount                                Bin/EM4233.o
                                                  Bin/TITagitstandard.o
                                                  Bin/Sl2s2002.o
                                                  Bin/Vicinity.o
                                                  Bin/ISO15693.o
                                                  Bin/NTAG215.o
                                                  Bin/NFC_Command.o
                                                  Bin/Reader14443A.o
                                                  Bin/MifareClassic.o
                                                  Bin/MifareUltralight.o
                                                  Bin/SniffISO14443-2A.o
                                                  Bin/Reader14443-2A.o
                                                  Bin/ISO14443-2A.o
                                                  Bin/CommandLine.o
                                                  Bin/Commands.o
                                                  Bin/AntennaLevel.o
                                                  Bin/Button.o
                                                  Bin/Configuration.o
                                                  Bin/Chameleon-Mini.o
ReaderSendBuffer                                  Bin/EM4233.o
                                                  Bin/TITagitstandard.o
                                                  Bin/Sl2s2002.o
                                                  Bin/Vicinity.o
                                                  Bin/ISO15693.o
                                                  Bin/NTAG215.o
                                                  Bin/NFC_Command.o
                                                  Bin/Reader14443A.o
                                                  Bin/MifareClassic.o
                                                  Bin/MifareUltralight.o
                                                  Bin/SniffISO14443-2A.o
                                                  Bin/Reader14443-2A.o
                                                  Bin/ISO14443-2A.o
                                                  Bin/CommandLine.o
                                                  Bin/Commands.o
                                                  Bin/AntennaLevel.o
                                                  Bin/Button.o
                                                  Bin/Configuration.o
                                                  Bin/Chameleon-Mini.o
Reader_FWT                                        Bin/Codec.o
                                                  Bin/Reader14443A.o
                                                  Bin/SniffISO14443-2A.o
                                                  Bin/Reader14443-2A.o
SettingsCycle                                     Bin/Settings.o
                                                  Bin/Button.o
SettingsGetActiveById                             Bin/Settings.o
SettingsGetActiveByName                           Bin/Settings.o
                                                  Bin/Commands.o
SettingsLoad                                      Bin/Settings.o
                                                  Bin/Chameleon-Mini.o
SettingsSave                                      Bin/Settings.o
                                                  Bin/Reader14443A.o
                                                  Bin/Commands.o
SettingsSetActiveById                             Bin/Settings.o
SettingsSetActiveByName                           Bin/Settings.o
                                                  Bin/Commands.o
Sl2s2002AppInit                                   Bin/Sl2s2002.o
                                                  Bin/Configuration.o
Sl2s2002AppProcess                                Bin/Sl2s2002.o
                                                  Bin/Configuration.o
Sl2s2002AppReset                                  Bin/Sl2s2002.o
                                                  Bin/Configuration.o
Sl2s2002AppTask                                   Bin/Sl2s2002.o
                                                  Bin/Configuration.o
Sl2s2002AppTick                                   Bin/Sl2s2002.o
                                                  Bin/Configuration.o
Sl2s2002GetUid                                    Bin/Sl2s2002.o
                                                  Bin/Configuration.o
Sl2s2002SetUid                                    Bin/Sl2s2002.o
                                                  Bin/Configuration.o
Sniff14443AAppInit                                Bin/Sniff14443A.o
                                                  Bin/Commands.o
                                                  Bin/Configuration.o
Sniff14443AAppProcess                             Bin/Sniff14443A.o
                                                  Bin/Configuration.o
Sniff14443AAppReset                               Bin/Sniff14443A.o
                                                  Bin/Configuration.o
Sniff14443AAppTask                                Bin/Sniff14443A.o
                                                  Bin/Configuration.o
Sniff14443AAppTick                                Bin/Sniff14443A.o
                                                  Bin/Configuration.o
Sniff14443AAppTimeout                             Bin/Sniff14443A.o
                                                  Bin/Commands.o
Sniff14443ACodecDeInit                            Bin/SniffISO14443-2A.o
                                                  Bin/Configuration.o
Sniff14443ACodecInit                              Bin/SniffISO14443-2A.o
                                                  Bin/Configuration.o
Sniff14443ACodecTask                              Bin/SniffISO14443-2A.o
                                                  Bin/Configuration.o
Sniff14443CurrentCommand                          Bin/Sniff14443A.o
                                                  Bin/Commands.o
StartISO15693Demod                                Bin/ISO15693.o
StoredSettings                                    Bin/Settings.o
                                                  Bin/Sniff14443A.o
                                                  Bin/Reader14443A.o
                                                  Bin/Commands.o
SystemEnterBootloader                             Bin/System.o
                                                  Bin/Commands.o
SystemInit                                        Bin/System.o
                                                  Bin/Chameleon-Mini.o
SystemInterruptInit                               Bin/System.o
                                                  Bin/Chameleon-Mini.o
SystemReset                                       Bin/System.o
                                                  Bin/Commands.o
SystemStartUSBClock                               Bin/System.o
                                                  Bin/Terminal.o
SystemStopUSBClock                                Bin/System.o
                                                  Bin/Terminal.o
TITagitstandardAppInit                            Bin/TITagitstandard.o
                                                  Bin/Configuration.o
TITagitstandardAppProcess                         Bin/TITagitstandard.o
                                                  Bin/Configuration.o
TITagitstandardAppReset                           Bin/TITagitstandard.o
                                                  Bin/Configuration.o
TITagitstandardAppTask                            Bin/TITagitstandard.o
                                                  Bin/Configuration.o
TITagitstandardAppTick                            Bin/TITagitstandard.o
                                                  Bin/Configuration.o
TITagitstandardFlipUid                            Bin/TITagitstandard.o
TITagitstandardGetUid                             Bin/TITagitstandard.o
                                                  Bin/Configuration.o
TITagitstandardSetUid                             Bin/TITagitstandard.o
                                                  Bin/Configuration.o
TerminalBuffer                                    Bin/Terminal.o
                                                  Bin/CommandLine.o
                                                  Bin/XModem.o
TerminalHandle                                    Bin/Terminal.o
                                                  Bin/NFC_Command.o
                                                  Bin/Reader14443A.o
                                                  Bin/XModem.o
                                                  Bin/Log.o
TerminalInit                                      Bin/Terminal.o
                                                  Bin/Chameleon-Mini.o
TerminalSendBlock                                 Bin/Terminal.o
                                                  Bin/XModem.o
                                                  Bin/Log.o
TerminalSendString                                Bin/Terminal.o
                                                  Bin/NFC_Command.o
                                                  Bin/Sniff14443A.o
                                                  Bin/Reader14443A.o
                                                  Bin/CommandLine.o
TerminalSendStringP                               Bin/Terminal.o
                                                  Bin/Reader14443A.o
                                                  Bin/CommandLine.o
TerminalState                                     Bin/Terminal.o
TerminalTask                                      Bin/Terminal.o
                                                  Bin/Chameleon-Mini.o
TerminalTick                                      Bin/Terminal.o
                                                  Bin/Chameleon-Mini.o
TrafficSource                                     Bin/EM4233.o
                                                  Bin/TITagitstandard.o
                                                  Bin/Sl2s2002.o
                                                  Bin/Vicinity.o
                                                  Bin/ISO15693.o
                                                  Bin/NTAG215.o
                                                  Bin/NFC_Command.o
                                                  Bin/Sniff14443A.o
                                                  Bin/Reader14443A.o
                                                  Bin/Crypto1.o
                                                  Bin/MifareClassic.o
                                                  Bin/MifareUltralight.o
                                                  Bin/SniffISO14443-2A.o
                                                  Bin/Reader14443-2A.o
                                                  Bin/ISO14443-2A.o
                                                  Bin/Codec.o
                                                  Bin/CommandLine.o
                                                  Bin/Commands.o
                                                  Bin/AntennaLevel.o
                                                  Bin/Button.o
                                                  Bin/Configuration.o
                                                  Bin/Chameleon-Mini.o
USB_ControlRequest                                Bin/USBTask.o
                                                  Bin/RNDISClassDevice.o
                                                  Bin/PrinterClassDevice.o
                                                  Bin/MassStorageClassDevice.o
                                                  Bin/HIDClassDevice.o
                                                  Bin/CDCClassDevice.o
                                                  Bin/AudioClassDevice.o
                                                  Bin/Endpoint_XMEGA.o
                                                  Bin/EndpointStream_XMEGA.o
                                                  Bin/DeviceStandardReq.o
USB_DeviceState                                   Bin/USBTask.o
                                                  Bin/RNDISClassDevice.o
                                                  Bin/PrinterClassDevice.o
                                                  Bin/MIDIClassDevice.o
                                                  Bin/MassStorageClassDevice.o
                                                  Bin/HIDClassDevice.o
                                                  Bin/CDCClassDevice.o
                                                  Bin/USBInterrupt_XMEGA.o
                                                  Bin/USBController_XMEGA.o
                                                  Bin/Endpoint_XMEGA.o
                                                  Bin/EndpointStream_XMEGA.o
                                                  Bin/DeviceStandardReq.o
USB_Device_ConfigurationNumber                    Bin/DeviceStandardReq.o
                                                  Bin/USBInterrupt_XMEGA.o
                                                  Bin/USBController_XMEGA.o
USB_Device_CurrentlySelfPowered                   Bin/DeviceStandardReq.o
                                                  Bin/USBController_XMEGA.o
USB_Device_ProcessControlRequest                  Bin/DeviceStandardReq.o
                                                  Bin/USBTask.o
USB_Device_RemoteWakeupEnabled                    Bin/DeviceStandardReq.o
                                                  Bin/USBController_XMEGA.o
USB_Device_SendRemoteWakeup                       Bin/Device_XMEGA.o
USB_Disable                                       Bin/USBController_XMEGA.o
                                                  Bin/Commands.o
                                                  Bin/Terminal.o
USB_EndpointTable                                 Bin/USBController_XMEGA.o
USB_Endpoint_FIFOs                                Bin/Endpoint_XMEGA.o
                                                  Bin/PrinterClassDevice.o
                                                  Bin/MassStorageClassDevice.o
                                                  Bin/DeviceStandardReq.o
USB_Endpoint_SelectedEndpoint                     Bin/Endpoint_XMEGA.o
                                                  Bin/PrinterClassDevice.o
                                                  Bin/MIDIClassDevice.o
                                                  Bin/CDCClassDevice.o
                                                  Bin/EndpointStream_XMEGA.o
                                                  Bin/USBTask.o
USB_Endpoint_SelectedFIFO                         Bin/Endpoint_XMEGA.o
                                                  Bin/PrinterClassDevice.o
                                                  Bin/MIDIClassDevice.o
                                                  Bin/HIDClassDevice.o
                                                  Bin/CDCClassDevice.o
                                                  Bin/EndpointStream_XMEGA.o
USB_Endpoint_SelectedHandle                       Bin/Endpoint_XMEGA.o
                                                  Bin/PrinterClassDevice.o
                                                  Bin/MassStorageClassDevice.o
                                                  Bin/DeviceStandardReq.o
USB_Event_Stub                                    Bin/Events.o
USB_GetHIDReportItemInfo                          Bin/HIDParser.o
USB_GetHIDReportSize                              Bin/HIDParser.o
USB_GetNextDescriptorComp                         Bin/ConfigDescriptors.o
USB_GetNextDescriptorOfType                       Bin/ConfigDescriptors.o
USB_GetNextDescriptorOfTypeAfter                  Bin/ConfigDescriptors.o
USB_GetNextDescriptorOfTypeBefore                 Bin/ConfigDescriptors.o
USB_INT_ClearAllInterrupts                        Bin/USBInterrupt_XMEGA.o
                                                  Bin/USBController_XMEGA.o
USB_INT_DisableAllInterrupts                      Bin/USBInterrupt_XMEGA.o
                                                  Bin/USBController_XMEGA.o
USB_Init                                          Bin/USBController_XMEGA.o
                                                  Bin/Terminal.o
USB_IsInitialized                                 Bin/USBTask.o
                                                  Bin/USBController_XMEGA.o
USB_ProcessHIDReport                              Bin/HIDParser.o
USB_ResetInterface                                Bin/USBController_XMEGA.o
USB_SetHIDReportItemInfo                          Bin/HIDParser.o
USB_USBTask                                       Bin/USBTask.o
                                                  Bin/PrinterClassDevice.o
                                                  Bin/MassStorageClassDevice.o
                                                  Bin/CDCClassDevice.o
                                                  Bin/EndpointStream_XMEGA.o
                                                  Bin/Terminal.o
UserLockBits_Mask                                 Bin/TITagitstandard.o
VicinityAppInit                                   Bin/Vicinity.o
                                                  Bin/Configuration.o
VicinityAppProcess                                Bin/Vicinity.o
                                                  Bin/Configuration.o
VicinityAppReset                                  Bin/Vicinity.o
                                                  Bin/Configuration.o
VicinityAppTask                                   Bin/Vicinity.o
                                                  Bin/Configuration.o
VicinityAppTick                                   Bin/Vicinity.o
                                                  Bin/Configuration.o
VicinityGetUid                                    Bin/Vicinity.o
                                                  Bin/Configuration.o
VicinitySetUid                                    Bin/Vicinity.o
                                                  Bin/Configuration.o
WaitForNVM                                        Bin/Memory.o
WriteEEPBlock                                     Bin/Memory.o
                                                  Bin/Settings.o
                                                  Bin/Log.o
XModemProcessByte                                 Bin/XModem.o
                                                  Bin/Terminal.o
XModemReceive                                     Bin/XModem.o
                                                  Bin/Commands.o
XModemSend                                        Bin/XModem.o
                                                  Bin/Commands.o
XModemTick                                        Bin/XModem.o
                                                  Bin/Terminal.o
__FUSE_REGION_LENGTH__                            c:/program files/avr8-gnu-toolchain-win32_x86/bin/../lib/gcc/avr/5.4.0/../../../../avr/lib/avrxmega7/crtatxmega128a4u.o
__bad_interrupt                                   c:/program files/avr8-gnu-toolchain-win32_x86/bin/../lib/gcc/avr/5.4.0/../../../../avr/lib/avrxmega7/crtatxmega128a4u.o
__bss_end                                         c:/program files/avr8-gnu-toolchain-win32_x86/bin/../lib/gcc/avr/5.4.0/avrxmega7\libgcc.a(_clear_bss.o)
__bss_start                                       c:/program files/avr8-gnu-toolchain-win32_x86/bin/../lib/gcc/avr/5.4.0/avrxmega7\libgcc.a(_clear_bss.o)
__ctype_isfalse                                   c:/program files/avr8-gnu-toolchain-win32_x86/bin/../lib/gcc/avr/5.4.0/../../../../avr/lib/avrxmega7\libc.a(cty_isfalse.o)
                                                  c:/program files/avr8-gnu-toolchain-win32_x86/bin/../lib/gcc/avr/5.4.0/../../../../avr/lib/avrxmega7\libc.a(isspace.o)
__ctype_istrue                                    c:/program files/avr8-gnu-toolchain-win32_x86/bin/../lib/gcc/avr/5.4.0/../../../../avr/lib/avrxmega7\libc.a(cty_isfalse.o)
__data_end                                        c:/program files/avr8-gnu-toolchain-win32_x86/bin/../lib/gcc/avr/5.4.0/avrxmega7\libgcc.a(_copy_data.o)
__data_load_start                                 c:/program files/avr8-gnu-toolchain-win32_x86/bin/../lib/gcc/avr/5.4.0/avrxmega7\libgcc.a(_copy_data.o)
__data_start                                      c:/program files/avr8-gnu-toolchain-win32_x86/bin/../lib/gcc/avr/5.4.0/avrxmega7\libgcc.a(_copy_data.o)
__divmodsi4                                       c:/program files/avr8-gnu-toolchain-win32_x86/bin/../lib/gcc/avr/5.4.0/avrxmega7\libgcc.a(_divmodsi4.o)
                                                  c:/program files/avr8-gnu-toolchain-win32_x86/bin/../lib/gcc/avr/5.4.0/../../../../avr/lib/avrxmega7\libc.a(rand.o)
__divsf3                                          c:/program files/avr8-gnu-toolchain-win32_x86/bin/../lib/gcc/avr/5.4.0/../../../../avr/lib/avrxmega7\libm.a(divsf3.o)
                                                  Bin/NFC_Command.o
__divsf3_pse                                      c:/program files/avr8-gnu-toolchain-win32_x86/bin/../lib/gcc/avr/5.4.0/../../../../avr/lib/avrxmega7\libm.a(divsf3x.o)
__divsf3x                                         c:/program files/avr8-gnu-toolchain-win32_x86/bin/../lib/gcc/avr/5.4.0/../../../../avr/lib/avrxmega7\libm.a(divsf3x.o)
                                                  c:/program files/avr8-gnu-toolchain-win32_x86/bin/../lib/gcc/avr/5.4.0/../../../../avr/lib/avrxmega7\libm.a(divsf3.o)
__do_clear_bss                                    c:/program files/avr8-gnu-toolchain-win32_x86/bin/../lib/gcc/avr/5.4.0/avrxmega7\libgcc.a(_clear_bss.o)
                                                  Bin/USBController_XMEGA.o
                                                  Bin/Endpoint_XMEGA.o
                                                  Bin/USBTask.o
                                                  Bin/DeviceStandardReq.o
                                                  Bin/EM4233.o
                                                  Bin/TITagitstandard.o
                                                  Bin/Sl2s2002.o
                                                  Bin/Vicinity.o
                                                  Bin/ISO15693.o
                                                  Bin/NTAG215.o
                                                  Bin/NFC_Command.o
                                                  Bin/Sniff14443A.o
                                                  Bin/Reader14443A.o
                                                  Bin/Crypto1.o
                                                  Bin/MifareClassic.o
                                                  Bin/MifareUltralight.o
                                                  Bin/SniffISO14443-2A.o
                                                  Bin/Reader14443-2A.o
                                                  Bin/ISO14443-2A.o
                                                  Bin/Codec.o
                                                  Bin/CommandLine.o
                                                  Bin/XModem.o
                                                  Bin/Commands.o
                                                  Bin/Terminal.o
                                                  Bin/AntennaLevel.o
                                                  Bin/LED.o
                                                  Bin/Settings.o
                                                  Bin/Log.o
                                                  Bin/Button.o
                                                  Bin/Memory.o
                                                  Bin/Configuration.o
                                                  Bin/Chameleon-Mini.o
__do_copy_data                                    c:/program files/avr8-gnu-toolchain-win32_x86/bin/../lib/gcc/avr/5.4.0/avrxmega7\libgcc.a(_copy_data.o)
                                                  c:/program files/avr8-gnu-toolchain-win32_x86/bin/../lib/gcc/avr/5.4.0/../../../../avr/lib/avrxmega7\libc.a(rand.o)
                                                  Bin/RNDISClassDevice.o
                                                  Bin/CDCClassDevice.o
                                                  Bin/ISO15693.o
                                                  Bin/NFC_Command.o
                                                  Bin/Sniff14443A.o
                                                  Bin/Reader14443A.o
                                                  Bin/Crypto1.o
                                                  Bin/MifareClassic.o
                                                  Bin/ISO14443-2A.o
                                                  Bin/Codec.o
                                                  Bin/Commands.o
                                                  Bin/Terminal.o
                                                  Bin/Log.o
                                                  Bin/Button.o
__fixunssfsi                                      c:/program files/avr8-gnu-toolchain-win32_x86/bin/../lib/gcc/avr/5.4.0/../../../../avr/lib/avrxmega7\libm.a(fixunssfsi.o)
                                                  Bin/NFC_Command.o
__floatsisf                                       c:/program files/avr8-gnu-toolchain-win32_x86/bin/../lib/gcc/avr/5.4.0/../../../../avr/lib/avrxmega7\libm.a(floatsisf.o)
                                                  Bin/NFC_Command.o
__floatunsisf                                     c:/program files/avr8-gnu-toolchain-win32_x86/bin/../lib/gcc/avr/5.4.0/../../../../avr/lib/avrxmega7\libm.a(floatsisf.o)
                                                  Bin/NFC_Command.o
__fp_cmp                                          c:/program files/avr8-gnu-toolchain-win32_x86/bin/../lib/gcc/avr/5.4.0/../../../../avr/lib/avrxmega7\libm.a(fp_cmp.o)
                                                  c:/program files/avr8-gnu-toolchain-win32_x86/bin/../lib/gcc/avr/5.4.0/../../../../avr/lib/avrxmega7\libm.a(gesf2.o)
__fp_inf                                          c:/program files/avr8-gnu-toolchain-win32_x86/bin/../lib/gcc/avr/5.4.0/../../../../avr/lib/avrxmega7\libm.a(fp_inf.o)
                                                  c:/program files/avr8-gnu-toolchain-win32_x86/bin/../lib/gcc/avr/5.4.0/../../../../avr/lib/avrxmega7\libm.a(divsf3x.o)
__fp_mintl                                        c:/program files/avr8-gnu-toolchain-win32_x86/bin/../lib/gcc/avr/5.4.0/../../../../avr/lib/avrxmega7\libm.a(fp_mintl.o)
                                                  c:/program files/avr8-gnu-toolchain-win32_x86/bin/../lib/gcc/avr/5.4.0/../../../../avr/lib/avrxmega7\libm.a(ceil.o)
__fp_mpack                                        c:/program files/avr8-gnu-toolchain-win32_x86/bin/../lib/gcc/avr/5.4.0/../../../../avr/lib/avrxmega7\libm.a(fp_mpack.o)
                                                  c:/program files/avr8-gnu-toolchain-win32_x86/bin/../lib/gcc/avr/5.4.0/../../../../avr/lib/avrxmega7\libm.a(ceil.o)
__fp_mpack_finite                                 c:/program files/avr8-gnu-toolchain-win32_x86/bin/../lib/gcc/avr/5.4.0/../../../../avr/lib/avrxmega7\libm.a(fp_mpack.o)
__fp_nan                                          c:/program files/avr8-gnu-toolchain-win32_x86/bin/../lib/gcc/avr/5.4.0/../../../../avr/lib/avrxmega7\libm.a(fp_nan.o)
                                                  c:/program files/avr8-gnu-toolchain-win32_x86/bin/../lib/gcc/avr/5.4.0/../../../../avr/lib/avrxmega7\libm.a(divsf3x.o)
__fp_pscA                                         c:/program files/avr8-gnu-toolchain-win32_x86/bin/../lib/gcc/avr/5.4.0/../../../../avr/lib/avrxmega7\libm.a(fp_pscA.o)
                                                  c:/program files/avr8-gnu-toolchain-win32_x86/bin/../lib/gcc/avr/5.4.0/../../../../avr/lib/avrxmega7\libm.a(divsf3x.o)
__fp_pscB                                         c:/program files/avr8-gnu-toolchain-win32_x86/bin/../lib/gcc/avr/5.4.0/../../../../avr/lib/avrxmega7\libm.a(fp_pscB.o)
                                                  c:/program files/avr8-gnu-toolchain-win32_x86/bin/../lib/gcc/avr/5.4.0/../../../../avr/lib/avrxmega7\libm.a(divsf3x.o)
__fp_round                                        c:/program files/avr8-gnu-toolchain-win32_x86/bin/../lib/gcc/avr/5.4.0/../../../../avr/lib/avrxmega7\libm.a(fp_round.o)
                                                  c:/program files/avr8-gnu-toolchain-win32_x86/bin/../lib/gcc/avr/5.4.0/../../../../avr/lib/avrxmega7\libm.a(divsf3.o)
__fp_split3                                       c:/program files/avr8-gnu-toolchain-win32_x86/bin/../lib/gcc/avr/5.4.0/../../../../avr/lib/avrxmega7\libm.a(fp_split3.o)
                                                  c:/program files/avr8-gnu-toolchain-win32_x86/bin/../lib/gcc/avr/5.4.0/../../../../avr/lib/avrxmega7\libm.a(divsf3x.o)
__fp_splitA                                       c:/program files/avr8-gnu-toolchain-win32_x86/bin/../lib/gcc/avr/5.4.0/../../../../avr/lib/avrxmega7\libm.a(fp_split3.o)
                                                  c:/program files/avr8-gnu-toolchain-win32_x86/bin/../lib/gcc/avr/5.4.0/../../../../avr/lib/avrxmega7\libm.a(fp_trunc.o)
                                                  c:/program files/avr8-gnu-toolchain-win32_x86/bin/../lib/gcc/avr/5.4.0/../../../../avr/lib/avrxmega7\libm.a(fixunssfsi.o)
__fp_szero                                        c:/program files/avr8-gnu-toolchain-win32_x86/bin/../lib/gcc/avr/5.4.0/../../../../avr/lib/avrxmega7\libm.a(fp_zero.o)
                                                  c:/program files/avr8-gnu-toolchain-win32_x86/bin/../lib/gcc/avr/5.4.0/../../../../avr/lib/avrxmega7\libm.a(divsf3x.o)
                                                  c:/program files/avr8-gnu-toolchain-win32_x86/bin/../lib/gcc/avr/5.4.0/../../../../avr/lib/avrxmega7\libm.a(ceil.o)
__fp_trunc                                        c:/program files/avr8-gnu-toolchain-win32_x86/bin/../lib/gcc/avr/5.4.0/../../../../avr/lib/avrxmega7\libm.a(fp_trunc.o)
                                                  c:/program files/avr8-gnu-toolchain-win32_x86/bin/../lib/gcc/avr/5.4.0/../../../../avr/lib/avrxmega7\libm.a(ceil.o)
__fp_zero                                         c:/program files/avr8-gnu-toolchain-win32_x86/bin/../lib/gcc/avr/5.4.0/../../../../avr/lib/avrxmega7\libm.a(fp_zero.o)
                                                  c:/program files/avr8-gnu-toolchain-win32_x86/bin/../lib/gcc/avr/5.4.0/../../../../avr/lib/avrxmega7\libm.a(fixunssfsi.o)
__gesf2                                           c:/program files/avr8-gnu-toolchain-win32_x86/bin/../lib/gcc/avr/5.4.0/../../../../avr/lib/avrxmega7\libm.a(gesf2.o)
__gtsf2                                           c:/program files/avr8-gnu-toolchain-win32_x86/bin/../lib/gcc/avr/5.4.0/../../../../avr/lib/avrxmega7\libm.a(gesf2.o)
                                                  Bin/NFC_Command.o
__heap_end                                        c:/program files/avr8-gnu-toolchain-win32_x86/bin/../lib/gcc/avr/5.4.0/../../../../avr/lib/avrxmega7/crtatxmega128a4u.o
__init                                            c:/program files/avr8-gnu-toolchain-win32_x86/bin/../lib/gcc/avr/5.4.0/../../../../avr/lib/avrxmega7/crtatxmega128a4u.o
__mulohisi3                                       c:/program files/avr8-gnu-toolchain-win32_x86/bin/../lib/gcc/avr/5.4.0/avrxmega7\libgcc.a(_mulshisi3.o)
                                                  c:/program files/avr8-gnu-toolchain-win32_x86/bin/../lib/gcc/avr/5.4.0/../../../../avr/lib/avrxmega7\libc.a(rand.o)
__mulshisi3                                       c:/program files/avr8-gnu-toolchain-win32_x86/bin/../lib/gcc/avr/5.4.0/avrxmega7\libgcc.a(_mulshisi3.o)
                                                  Bin/Commands.o
                                                  Bin/AntennaLevel.o
__muluhisi3                                       c:/program files/avr8-gnu-toolchain-win32_x86/bin/../lib/gcc/avr/5.4.0/avrxmega7\libgcc.a(_muluhisi3.o)
                                                  c:/program files/avr8-gnu-toolchain-win32_x86/bin/../lib/gcc/avr/5.4.0/../../../../avr/lib/avrxmega7\libc.a(rand.o)
                                                  c:/program files/avr8-gnu-toolchain-win32_x86/bin/../lib/gcc/avr/5.4.0/avrxmega7\libgcc.a(_mulshisi3.o)
__negsi2                                          c:/program files/avr8-gnu-toolchain-win32_x86/bin/../lib/gcc/avr/5.4.0/avrxmega7\libgcc.a(_negsi2.o)
                                                  c:/program files/avr8-gnu-toolchain-win32_x86/bin/../lib/gcc/avr/5.4.0/avrxmega7\libgcc.a(_divmodsi4.o)
__stack                                           c:/program files/avr8-gnu-toolchain-win32_x86/bin/../lib/gcc/avr/5.4.0/../../../../avr/lib/avrxmega7/crtatxmega128a4u.o
__strlen_P                                        c:/program files/avr8-gnu-toolchain-win32_x86/bin/../lib/gcc/avr/5.4.0/../../../../avr/lib/avrxmega7\libc.a(strlen_P.o)
                                                  Bin/CDCClassDevice.o
__udivmodhi4                                      c:/program files/avr8-gnu-toolchain-win32_x86/bin/../lib/gcc/avr/5.4.0/avrxmega7\libgcc.a(_udivmodhi4.o)
                                                  Bin/Reader14443A.o
                                                  Bin/CommandLine.o
                                                  Bin/Commands.o
__udivmodqi4                                      c:/program files/avr8-gnu-toolchain-win32_x86/bin/../lib/gcc/avr/5.4.0/avrxmega7\libgcc.a(_udivmodqi4.o)
                                                  Bin/Crypto1.o
__udivmodsi4                                      c:/program files/avr8-gnu-toolchain-win32_x86/bin/../lib/gcc/avr/5.4.0/avrxmega7\libgcc.a(_udivmodsi4.o)
                                                  c:/program files/avr8-gnu-toolchain-win32_x86/bin/../lib/gcc/avr/5.4.0/avrxmega7\libgcc.a(_divmodsi4.o)
__ultoa_invert                                    c:/program files/avr8-gnu-toolchain-win32_x86/bin/../lib/gcc/avr/5.4.0/../../../../avr/lib/avrxmega7\libc.a(ultoa_invert.o)
                                                  c:/program files/avr8-gnu-toolchain-win32_x86/bin/../lib/gcc/avr/5.4.0/../../../../avr/lib/avrxmega7\libc.a(vfprintf_std.o)
__umulhisi3                                       c:/program files/avr8-gnu-toolchain-win32_x86/bin/../lib/gcc/avr/5.4.0/avrxmega7\libgcc.a(_umulhisi3.o)
                                                  c:/program files/avr8-gnu-toolchain-win32_x86/bin/../lib/gcc/avr/5.4.0/avrxmega7\libgcc.a(_muluhisi3.o)
__vector_1                                        c:/program files/avr8-gnu-toolchain-win32_x86/bin/../lib/gcc/avr/5.4.0/../../../../avr/lib/avrxmega7/crtatxmega128a4u.o
__vector_10                                       Bin/System.o
                                                  c:/program files/avr8-gnu-toolchain-win32_x86/bin/../lib/gcc/avr/5.4.0/../../../../avr/lib/avrxmega7/crtatxmega128a4u.o
__vector_100                                      c:/program files/avr8-gnu-toolchain-win32_x86/bin/../lib/gcc/avr/5.4.0/../../../../avr/lib/avrxmega7/crtatxmega128a4u.o
__vector_101                                      c:/program files/avr8-gnu-toolchain-win32_x86/bin/../lib/gcc/avr/5.4.0/../../../../avr/lib/avrxmega7/crtatxmega128a4u.o
__vector_102                                      c:/program files/avr8-gnu-toolchain-win32_x86/bin/../lib/gcc/avr/5.4.0/../../../../avr/lib/avrxmega7/crtatxmega128a4u.o
__vector_103                                      c:/program files/avr8-gnu-toolchain-win32_x86/bin/../lib/gcc/avr/5.4.0/../../../../avr/lib/avrxmega7/crtatxmega128a4u.o
__vector_104                                      c:/program files/avr8-gnu-toolchain-win32_x86/bin/../lib/gcc/avr/5.4.0/../../../../avr/lib/avrxmega7/crtatxmega128a4u.o
__vector_105                                      c:/program files/avr8-gnu-toolchain-win32_x86/bin/../lib/gcc/avr/5.4.0/../../../../avr/lib/avrxmega7/crtatxmega128a4u.o
__vector_106                                      c:/program files/avr8-gnu-toolchain-win32_x86/bin/../lib/gcc/avr/5.4.0/../../../../avr/lib/avrxmega7/crtatxmega128a4u.o
__vector_107                                      c:/program files/avr8-gnu-toolchain-win32_x86/bin/../lib/gcc/avr/5.4.0/../../../../avr/lib/avrxmega7/crtatxmega128a4u.o
__vector_108                                      c:/program files/avr8-gnu-toolchain-win32_x86/bin/../lib/gcc/avr/5.4.0/../../../../avr/lib/avrxmega7/crtatxmega128a4u.o
__vector_109                                      c:/program files/avr8-gnu-toolchain-win32_x86/bin/../lib/gcc/avr/5.4.0/../../../../avr/lib/avrxmega7/crtatxmega128a4u.o
__vector_11                                       c:/program files/avr8-gnu-toolchain-win32_x86/bin/../lib/gcc/avr/5.4.0/../../../../avr/lib/avrxmega7/crtatxmega128a4u.o
__vector_110                                      c:/program files/avr8-gnu-toolchain-win32_x86/bin/../lib/gcc/avr/5.4.0/../../../../avr/lib/avrxmega7/crtatxmega128a4u.o
__vector_111                                      c:/program files/avr8-gnu-toolchain-win32_x86/bin/../lib/gcc/avr/5.4.0/../../../../avr/lib/avrxmega7/crtatxmega128a4u.o
__vector_112                                      c:/program files/avr8-gnu-toolchain-win32_x86/bin/../lib/gcc/avr/5.4.0/../../../../avr/lib/avrxmega7/crtatxmega128a4u.o
__vector_113                                      c:/program files/avr8-gnu-toolchain-win32_x86/bin/../lib/gcc/avr/5.4.0/../../../../avr/lib/avrxmega7/crtatxmega128a4u.o
__vector_114                                      c:/program files/avr8-gnu-toolchain-win32_x86/bin/../lib/gcc/avr/5.4.0/../../../../avr/lib/avrxmega7/crtatxmega128a4u.o
__vector_115                                      c:/program files/avr8-gnu-toolchain-win32_x86/bin/../lib/gcc/avr/5.4.0/../../../../avr/lib/avrxmega7/crtatxmega128a4u.o
__vector_116                                      c:/program files/avr8-gnu-toolchain-win32_x86/bin/../lib/gcc/avr/5.4.0/../../../../avr/lib/avrxmega7/crtatxmega128a4u.o
__vector_117                                      c:/program files/avr8-gnu-toolchain-win32_x86/bin/../lib/gcc/avr/5.4.0/../../../../avr/lib/avrxmega7/crtatxmega128a4u.o
__vector_118                                      c:/program files/avr8-gnu-toolchain-win32_x86/bin/../lib/gcc/avr/5.4.0/../../../../avr/lib/avrxmega7/crtatxmega128a4u.o
__vector_119                                      c:/program files/avr8-gnu-toolchain-win32_x86/bin/../lib/gcc/avr/5.4.0/../../../../avr/lib/avrxmega7/crtatxmega128a4u.o
__vector_12                                       c:/program files/avr8-gnu-toolchain-win32_x86/bin/../lib/gcc/avr/5.4.0/../../../../avr/lib/avrxmega7/crtatxmega128a4u.o
__vector_120                                      c:/program files/avr8-gnu-toolchain-win32_x86/bin/../lib/gcc/avr/5.4.0/../../../../avr/lib/avrxmega7/crtatxmega128a4u.o
__vector_121                                      c:/program files/avr8-gnu-toolchain-win32_x86/bin/../lib/gcc/avr/5.4.0/../../../../avr/lib/avrxmega7/crtatxmega128a4u.o
__vector_122                                      c:/program files/avr8-gnu-toolchain-win32_x86/bin/../lib/gcc/avr/5.4.0/../../../../avr/lib/avrxmega7/crtatxmega128a4u.o
__vector_123                                      c:/program files/avr8-gnu-toolchain-win32_x86/bin/../lib/gcc/avr/5.4.0/../../../../avr/lib/avrxmega7/crtatxmega128a4u.o
__vector_124                                      c:/program files/avr8-gnu-toolchain-win32_x86/bin/../lib/gcc/avr/5.4.0/../../../../avr/lib/avrxmega7/crtatxmega128a4u.o
__vector_125                                      Bin/USBInterrupt_XMEGA.o
                                                  c:/program files/avr8-gnu-toolchain-win32_x86/bin/../lib/gcc/avr/5.4.0/../../../../avr/lib/avrxmega7/crtatxmega128a4u.o
__vector_126                                      c:/program files/avr8-gnu-toolchain-win32_x86/bin/../lib/gcc/avr/5.4.0/../../../../avr/lib/avrxmega7/crtatxmega128a4u.o
__vector_13                                       c:/program files/avr8-gnu-toolchain-win32_x86/bin/../lib/gcc/avr/5.4.0/../../../../avr/lib/avrxmega7/crtatxmega128a4u.o
__vector_14                                       c:/program files/avr8-gnu-toolchain-win32_x86/bin/../lib/gcc/avr/5.4.0/../../../../avr/lib/avrxmega7/crtatxmega128a4u.o
__vector_15                                       c:/program files/avr8-gnu-toolchain-win32_x86/bin/../lib/gcc/avr/5.4.0/../../../../avr/lib/avrxmega7/crtatxmega128a4u.o
__vector_16                                       c:/program files/avr8-gnu-toolchain-win32_x86/bin/../lib/gcc/avr/5.4.0/../../../../avr/lib/avrxmega7/crtatxmega128a4u.o
__vector_17                                       c:/program files/avr8-gnu-toolchain-win32_x86/bin/../lib/gcc/avr/5.4.0/../../../../avr/lib/avrxmega7/crtatxmega128a4u.o
__vector_18                                       c:/program files/avr8-gnu-toolchain-win32_x86/bin/../lib/gcc/avr/5.4.0/../../../../avr/lib/avrxmega7/crtatxmega128a4u.o
__vector_19                                       c:/program files/avr8-gnu-toolchain-win32_x86/bin/../lib/gcc/avr/5.4.0/../../../../avr/lib/avrxmega7/crtatxmega128a4u.o
__vector_2                                        c:/program files/avr8-gnu-toolchain-win32_x86/bin/../lib/gcc/avr/5.4.0/../../../../avr/lib/avrxmega7/crtatxmega128a4u.o
__vector_20                                       c:/program files/avr8-gnu-toolchain-win32_x86/bin/../lib/gcc/avr/5.4.0/../../../../avr/lib/avrxmega7/crtatxmega128a4u.o
__vector_21                                       c:/program files/avr8-gnu-toolchain-win32_x86/bin/../lib/gcc/avr/5.4.0/../../../../avr/lib/avrxmega7/crtatxmega128a4u.o
__vector_22                                       c:/program files/avr8-gnu-toolchain-win32_x86/bin/../lib/gcc/avr/5.4.0/../../../../avr/lib/avrxmega7/crtatxmega128a4u.o
__vector_23                                       c:/program files/avr8-gnu-toolchain-win32_x86/bin/../lib/gcc/avr/5.4.0/../../../../avr/lib/avrxmega7/crtatxmega128a4u.o
__vector_24                                       c:/program files/avr8-gnu-toolchain-win32_x86/bin/../lib/gcc/avr/5.4.0/../../../../avr/lib/avrxmega7/crtatxmega128a4u.o
__vector_25                                       c:/program files/avr8-gnu-toolchain-win32_x86/bin/../lib/gcc/avr/5.4.0/../../../../avr/lib/avrxmega7/crtatxmega128a4u.o
__vector_26                                       c:/program files/avr8-gnu-toolchain-win32_x86/bin/../lib/gcc/avr/5.4.0/../../../../avr/lib/avrxmega7/crtatxmega128a4u.o
__vector_27                                       c:/program files/avr8-gnu-toolchain-win32_x86/bin/../lib/gcc/avr/5.4.0/../../../../avr/lib/avrxmega7/crtatxmega128a4u.o
__vector_28                                       c:/program files/avr8-gnu-toolchain-win32_x86/bin/../lib/gcc/avr/5.4.0/../../../../avr/lib/avrxmega7/crtatxmega128a4u.o
__vector_29                                       c:/program files/avr8-gnu-toolchain-win32_x86/bin/../lib/gcc/avr/5.4.0/../../../../avr/lib/avrxmega7/crtatxmega128a4u.o
__vector_3                                        c:/program files/avr8-gnu-toolchain-win32_x86/bin/../lib/gcc/avr/5.4.0/../../../../avr/lib/avrxmega7/crtatxmega128a4u.o
__vector_30                                       c:/program files/avr8-gnu-toolchain-win32_x86/bin/../lib/gcc/avr/5.4.0/../../../../avr/lib/avrxmega7/crtatxmega128a4u.o
__vector_31                                       c:/program files/avr8-gnu-toolchain-win32_x86/bin/../lib/gcc/avr/5.4.0/../../../../avr/lib/avrxmega7/crtatxmega128a4u.o
__vector_32                                       c:/program files/avr8-gnu-toolchain-win32_x86/bin/../lib/gcc/avr/5.4.0/../../../../avr/lib/avrxmega7/crtatxmega128a4u.o
__vector_33                                       c:/program files/avr8-gnu-toolchain-win32_x86/bin/../lib/gcc/avr/5.4.0/../../../../avr/lib/avrxmega7/crtatxmega128a4u.o
__vector_34                                       Bin/ISRSharing.o
                                                  c:/program files/avr8-gnu-toolchain-win32_x86/bin/../lib/gcc/avr/5.4.0/../../../../avr/lib/avrxmega7/crtatxmega128a4u.o
__vector_35                                       Bin/SniffISO14443-2A.o
                                                  c:/program files/avr8-gnu-toolchain-win32_x86/bin/../lib/gcc/avr/5.4.0/../../../../avr/lib/avrxmega7/crtatxmega128a4u.o
__vector_36                                       c:/program files/avr8-gnu-toolchain-win32_x86/bin/../lib/gcc/avr/5.4.0/../../../../avr/lib/avrxmega7/crtatxmega128a4u.o
__vector_37                                       c:/program files/avr8-gnu-toolchain-win32_x86/bin/../lib/gcc/avr/5.4.0/../../../../avr/lib/avrxmega7/crtatxmega128a4u.o
__vector_38                                       c:/program files/avr8-gnu-toolchain-win32_x86/bin/../lib/gcc/avr/5.4.0/../../../../avr/lib/avrxmega7/crtatxmega128a4u.o
__vector_39                                       c:/program files/avr8-gnu-toolchain-win32_x86/bin/../lib/gcc/avr/5.4.0/../../../../avr/lib/avrxmega7/crtatxmega128a4u.o
__vector_4                                        c:/program files/avr8-gnu-toolchain-win32_x86/bin/../lib/gcc/avr/5.4.0/../../../../avr/lib/avrxmega7/crtatxmega128a4u.o
__vector_40                                       c:/program files/avr8-gnu-toolchain-win32_x86/bin/../lib/gcc/avr/5.4.0/../../../../avr/lib/avrxmega7/crtatxmega128a4u.o
__vector_41                                       c:/program files/avr8-gnu-toolchain-win32_x86/bin/../lib/gcc/avr/5.4.0/../../../../avr/lib/avrxmega7/crtatxmega128a4u.o
__vector_42                                       c:/program files/avr8-gnu-toolchain-win32_x86/bin/../lib/gcc/avr/5.4.0/../../../../avr/lib/avrxmega7/crtatxmega128a4u.o
__vector_43                                       c:/program files/avr8-gnu-toolchain-win32_x86/bin/../lib/gcc/avr/5.4.0/../../../../avr/lib/avrxmega7/crtatxmega128a4u.o
__vector_44                                       c:/program files/avr8-gnu-toolchain-win32_x86/bin/../lib/gcc/avr/5.4.0/../../../../avr/lib/avrxmega7/crtatxmega128a4u.o
__vector_45                                       c:/program files/avr8-gnu-toolchain-win32_x86/bin/../lib/gcc/avr/5.4.0/../../../../avr/lib/avrxmega7/crtatxmega128a4u.o
__vector_46                                       c:/program files/avr8-gnu-toolchain-win32_x86/bin/../lib/gcc/avr/5.4.0/../../../../avr/lib/avrxmega7/crtatxmega128a4u.o
__vector_47                                       Bin/ISO14443-2A.o
                                                  c:/program files/avr8-gnu-toolchain-win32_x86/bin/../lib/gcc/avr/5.4.0/../../../../avr/lib/avrxmega7/crtatxmega128a4u.o
__vector_48                                       c:/program files/avr8-gnu-toolchain-win32_x86/bin/../lib/gcc/avr/5.4.0/../../../../avr/lib/avrxmega7/crtatxmega128a4u.o
__vector_49                                       Bin/Reader14443-2A.o
                                                  c:/program files/avr8-gnu-toolchain-win32_x86/bin/../lib/gcc/avr/5.4.0/../../../../avr/lib/avrxmega7/crtatxmega128a4u.o
__vector_5                                        c:/program files/avr8-gnu-toolchain-win32_x86/bin/../lib/gcc/avr/5.4.0/../../../../avr/lib/avrxmega7/crtatxmega128a4u.o
__vector_50                                       Bin/SniffISO14443-2A.o
                                                  c:/program files/avr8-gnu-toolchain-win32_x86/bin/../lib/gcc/avr/5.4.0/../../../../avr/lib/avrxmega7/crtatxmega128a4u.o
__vector_51                                       c:/program files/avr8-gnu-toolchain-win32_x86/bin/../lib/gcc/avr/5.4.0/../../../../avr/lib/avrxmega7/crtatxmega128a4u.o
__vector_52                                       c:/program files/avr8-gnu-toolchain-win32_x86/bin/../lib/gcc/avr/5.4.0/../../../../avr/lib/avrxmega7/crtatxmega128a4u.o
__vector_53                                       c:/program files/avr8-gnu-toolchain-win32_x86/bin/../lib/gcc/avr/5.4.0/../../../../avr/lib/avrxmega7/crtatxmega128a4u.o
__vector_54                                       c:/program files/avr8-gnu-toolchain-win32_x86/bin/../lib/gcc/avr/5.4.0/../../../../avr/lib/avrxmega7/crtatxmega128a4u.o
__vector_55                                       c:/program files/avr8-gnu-toolchain-win32_x86/bin/../lib/gcc/avr/5.4.0/../../../../avr/lib/avrxmega7/crtatxmega128a4u.o
__vector_56                                       c:/program files/avr8-gnu-toolchain-win32_x86/bin/../lib/gcc/avr/5.4.0/../../../../avr/lib/avrxmega7/crtatxmega128a4u.o
__vector_57                                       c:/program files/avr8-gnu-toolchain-win32_x86/bin/../lib/gcc/avr/5.4.0/../../../../avr/lib/avrxmega7/crtatxmega128a4u.o
__vector_58                                       c:/program files/avr8-gnu-toolchain-win32_x86/bin/../lib/gcc/avr/5.4.0/../../../../avr/lib/avrxmega7/crtatxmega128a4u.o
__vector_59                                       c:/program files/avr8-gnu-toolchain-win32_x86/bin/../lib/gcc/avr/5.4.0/../../../../avr/lib/avrxmega7/crtatxmega128a4u.o
__vector_6                                        c:/program files/avr8-gnu-toolchain-win32_x86/bin/../lib/gcc/avr/5.4.0/../../../../avr/lib/avrxmega7/crtatxmega128a4u.o
__vector_60                                       c:/program files/avr8-gnu-toolchain-win32_x86/bin/../lib/gcc/avr/5.4.0/../../../../avr/lib/avrxmega7/crtatxmega128a4u.o
__vector_61                                       c:/program files/avr8-gnu-toolchain-win32_x86/bin/../lib/gcc/avr/5.4.0/../../../../avr/lib/avrxmega7/crtatxmega128a4u.o
__vector_62                                       c:/program files/avr8-gnu-toolchain-win32_x86/bin/../lib/gcc/avr/5.4.0/../../../../avr/lib/avrxmega7/crtatxmega128a4u.o
__vector_63                                       c:/program files/avr8-gnu-toolchain-win32_x86/bin/../lib/gcc/avr/5.4.0/../../../../avr/lib/avrxmega7/crtatxmega128a4u.o
__vector_64                                       c:/program files/avr8-gnu-toolchain-win32_x86/bin/../lib/gcc/avr/5.4.0/../../../../avr/lib/avrxmega7/crtatxmega128a4u.o
__vector_65                                       c:/program files/avr8-gnu-toolchain-win32_x86/bin/../lib/gcc/avr/5.4.0/../../../../avr/lib/avrxmega7/crtatxmega128a4u.o
__vector_66                                       c:/program files/avr8-gnu-toolchain-win32_x86/bin/../lib/gcc/avr/5.4.0/../../../../avr/lib/avrxmega7/crtatxmega128a4u.o
__vector_67                                       c:/program files/avr8-gnu-toolchain-win32_x86/bin/../lib/gcc/avr/5.4.0/../../../../avr/lib/avrxmega7/crtatxmega128a4u.o
__vector_68                                       Bin/SniffISO14443-2A.o
                                                  c:/program files/avr8-gnu-toolchain-win32_x86/bin/../lib/gcc/avr/5.4.0/../../../../avr/lib/avrxmega7/crtatxmega128a4u.o
__vector_69                                       Bin/Reader14443-2A.o
                                                  c:/program files/avr8-gnu-toolchain-win32_x86/bin/../lib/gcc/avr/5.4.0/../../../../avr/lib/avrxmega7/crtatxmega128a4u.o
__vector_7                                        c:/program files/avr8-gnu-toolchain-win32_x86/bin/../lib/gcc/avr/5.4.0/../../../../avr/lib/avrxmega7/crtatxmega128a4u.o
__vector_70                                       c:/program files/avr8-gnu-toolchain-win32_x86/bin/../lib/gcc/avr/5.4.0/../../../../avr/lib/avrxmega7/crtatxmega128a4u.o
__vector_71                                       c:/program files/avr8-gnu-toolchain-win32_x86/bin/../lib/gcc/avr/5.4.0/../../../../avr/lib/avrxmega7/crtatxmega128a4u.o
__vector_72                                       c:/program files/avr8-gnu-toolchain-win32_x86/bin/../lib/gcc/avr/5.4.0/../../../../avr/lib/avrxmega7/crtatxmega128a4u.o
__vector_73                                       c:/program files/avr8-gnu-toolchain-win32_x86/bin/../lib/gcc/avr/5.4.0/../../../../avr/lib/avrxmega7/crtatxmega128a4u.o
__vector_74                                       c:/program files/avr8-gnu-toolchain-win32_x86/bin/../lib/gcc/avr/5.4.0/../../../../avr/lib/avrxmega7/crtatxmega128a4u.o
__vector_75                                       c:/program files/avr8-gnu-toolchain-win32_x86/bin/../lib/gcc/avr/5.4.0/../../../../avr/lib/avrxmega7/crtatxmega128a4u.o
__vector_76                                       c:/program files/avr8-gnu-toolchain-win32_x86/bin/../lib/gcc/avr/5.4.0/../../../../avr/lib/avrxmega7/crtatxmega128a4u.o
__vector_77                                       c:/program files/avr8-gnu-toolchain-win32_x86/bin/../lib/gcc/avr/5.4.0/../../../../avr/lib/avrxmega7/crtatxmega128a4u.o
__vector_78                                       c:/program files/avr8-gnu-toolchain-win32_x86/bin/../lib/gcc/avr/5.4.0/../../../../avr/lib/avrxmega7/crtatxmega128a4u.o
__vector_79                                       Bin/ISO14443-2A.o
                                                  c:/program files/avr8-gnu-toolchain-win32_x86/bin/../lib/gcc/avr/5.4.0/../../../../avr/lib/avrxmega7/crtatxmega128a4u.o
__vector_8                                        c:/program files/avr8-gnu-toolchain-win32_x86/bin/../lib/gcc/avr/5.4.0/../../../../avr/lib/avrxmega7/crtatxmega128a4u.o
__vector_80                                       Bin/Reader14443-ISR.o
                                                  c:/program files/avr8-gnu-toolchain-win32_x86/bin/../lib/gcc/avr/5.4.0/../../../../avr/lib/avrxmega7/crtatxmega128a4u.o
__vector_81                                       Bin/ISRSharing.o
                                                  c:/program files/avr8-gnu-toolchain-win32_x86/bin/../lib/gcc/avr/5.4.0/../../../../avr/lib/avrxmega7/crtatxmega128a4u.o
__vector_82                                       Bin/SniffISO14443-2A.o
                                                  c:/program files/avr8-gnu-toolchain-win32_x86/bin/../lib/gcc/avr/5.4.0/../../../../avr/lib/avrxmega7/crtatxmega128a4u.o
__vector_83                                       c:/program files/avr8-gnu-toolchain-win32_x86/bin/../lib/gcc/avr/5.4.0/../../../../avr/lib/avrxmega7/crtatxmega128a4u.o
__vector_84                                       c:/program files/avr8-gnu-toolchain-win32_x86/bin/../lib/gcc/avr/5.4.0/../../../../avr/lib/avrxmega7/crtatxmega128a4u.o
__vector_85                                       Bin/Reader14443-2A.o
                                                  c:/program files/avr8-gnu-toolchain-win32_x86/bin/../lib/gcc/avr/5.4.0/../../../../avr/lib/avrxmega7/crtatxmega128a4u.o
__vector_86                                       Bin/SniffISO14443-2A.o
                                                  c:/program files/avr8-gnu-toolchain-win32_x86/bin/../lib/gcc/avr/5.4.0/../../../../avr/lib/avrxmega7/crtatxmega128a4u.o
__vector_87                                       c:/program files/avr8-gnu-toolchain-win32_x86/bin/../lib/gcc/avr/5.4.0/../../../../avr/lib/avrxmega7/crtatxmega128a4u.o
__vector_88                                       c:/program files/avr8-gnu-toolchain-win32_x86/bin/../lib/gcc/avr/5.4.0/../../../../avr/lib/avrxmega7/crtatxmega128a4u.o
__vector_89                                       c:/program files/avr8-gnu-toolchain-win32_x86/bin/../lib/gcc/avr/5.4.0/../../../../avr/lib/avrxmega7/crtatxmega128a4u.o
__vector_9                                        c:/program files/avr8-gnu-toolchain-win32_x86/bin/../lib/gcc/avr/5.4.0/../../../../avr/lib/avrxmega7/crtatxmega128a4u.o
__vector_90                                       c:/program files/avr8-gnu-toolchain-win32_x86/bin/../lib/gcc/avr/5.4.0/../../../../avr/lib/avrxmega7/crtatxmega128a4u.o
__vector_91                                       c:/program files/avr8-gnu-toolchain-win32_x86/bin/../lib/gcc/avr/5.4.0/../../../../avr/lib/avrxmega7/crtatxmega128a4u.o
__vector_92                                       c:/program files/avr8-gnu-toolchain-win32_x86/bin/../lib/gcc/avr/5.4.0/../../../../avr/lib/avrxmega7/crtatxmega128a4u.o
__vector_93                                       c:/program files/avr8-gnu-toolchain-win32_x86/bin/../lib/gcc/avr/5.4.0/../../../../avr/lib/avrxmega7/crtatxmega128a4u.o
__vector_94                                       c:/program files/avr8-gnu-toolchain-win32_x86/bin/../lib/gcc/avr/5.4.0/../../../../avr/lib/avrxmega7/crtatxmega128a4u.o
__vector_95                                       c:/program files/avr8-gnu-toolchain-win32_x86/bin/../lib/gcc/avr/5.4.0/../../../../avr/lib/avrxmega7/crtatxmega128a4u.o
__vector_96                                       c:/program files/avr8-gnu-toolchain-win32_x86/bin/../lib/gcc/avr/5.4.0/../../../../avr/lib/avrxmega7/crtatxmega128a4u.o
__vector_97                                       c:/program files/avr8-gnu-toolchain-win32_x86/bin/../lib/gcc/avr/5.4.0/../../../../avr/lib/avrxmega7/crtatxmega128a4u.o
__vector_98                                       c:/program files/avr8-gnu-toolchain-win32_x86/bin/../lib/gcc/avr/5.4.0/../../../../avr/lib/avrxmega7/crtatxmega128a4u.o
__vector_99                                       c:/program files/avr8-gnu-toolchain-win32_x86/bin/../lib/gcc/avr/5.4.0/../../../../avr/lib/avrxmega7/crtatxmega128a4u.o
__vector_default                                  Bin/System.o
                                                  c:/program files/avr8-gnu-toolchain-win32_x86/bin/../lib/gcc/avr/5.4.0/../../../../avr/lib/avrxmega7/crtatxmega128a4u.o
__vectors                                         c:/program files/avr8-gnu-toolchain-win32_x86/bin/../lib/gcc/avr/5.4.0/../../../../avr/lib/avrxmega7/crtatxmega128a4u.o
_exit                                             c:/program files/avr8-gnu-toolchain-win32_x86/bin/../lib/gcc/avr/5.4.0/avrxmega7\libgcc.a(_exit.o)
addParityBits                                     Bin/Reader14443A.o
calculateCRC                                      Bin/ISO15693-A.o
ceil                                              c:/program files/avr8-gnu-toolchain-win32_x86/bin/../lib/gcc/avr/5.4.0/../../../../avr/lib/avrxmega7\libm.a(ceil.o)
                                                  Bin/NFC_Command.o
checkParityBits                                   Bin/Reader14443A.o
                                                  Bin/Sniff14443A.o
eeprom_mapen                                      c:/program files/avr8-gnu-toolchain-win32_x86/bin/../lib/gcc/avr/5.4.0/../../../../avr/lib/avrxmega7\libatxmega128a4u.a(eerd_byte.o)
                                                  c:/program files/avr8-gnu-toolchain-win32_x86/bin/../lib/gcc/avr/5.4.0/../../../../avr/lib/avrxmega7\libatxmega128a4u.a(eeupd_byte.o)
eeprom_read_byte                                  c:/program files/avr8-gnu-toolchain-win32_x86/bin/../lib/gcc/avr/5.4.0/../../../../avr/lib/avrxmega7\libatxmega128a4u.a(eerd_byte.o)
                                                  Bin/EndpointStream_XMEGA.o
eeprom_update_byte                                c:/program files/avr8-gnu-toolchain-win32_x86/bin/../lib/gcc/avr/5.4.0/../../../../avr/lib/avrxmega7\libatxmega128a4u.a(eeupd_byte.o)
                                                  c:/program files/avr8-gnu-toolchain-win32_x86/bin/../lib/gcc/avr/5.4.0/../../../../avr/lib/avrxmega7\libatxmega128a4u.a(eeupd_word.o)
                                                  Bin/EndpointStream_XMEGA.o
                                                  Bin/Commands.o
                                                  Bin/Settings.o
eeprom_update_r18                                 c:/program files/avr8-gnu-toolchain-win32_x86/bin/../lib/gcc/avr/5.4.0/../../../../avr/lib/avrxmega7\libatxmega128a4u.a(eeupd_byte.o)
                                                  c:/program files/avr8-gnu-toolchain-win32_x86/bin/../lib/gcc/avr/5.4.0/../../../../avr/lib/avrxmega7\libatxmega128a4u.a(eeupd_word.o)
eeprom_update_word                                c:/program files/avr8-gnu-toolchain-win32_x86/bin/../lib/gcc/avr/5.4.0/../../../../avr/lib/avrxmega7\libatxmega128a4u.a(eeupd_word.o)
                                                  Bin/Sniff14443A.o
                                                  Bin/Reader14443A.o
                                                  Bin/Commands.o
                                                  Bin/Settings.o
eeprom_write_byte                                 c:/program files/avr8-gnu-toolchain-win32_x86/bin/../lib/gcc/avr/5.4.0/../../../../avr/lib/avrxmega7\libatxmega128a4u.a(eewr_byte.o)
eeprom_write_r18                                  c:/program files/avr8-gnu-toolchain-win32_x86/bin/../lib/gcc/avr/5.4.0/../../../../avr/lib/avrxmega7\libatxmega128a4u.a(eewr_byte.o)
                                                  c:/program files/avr8-gnu-toolchain-win32_x86/bin/../lib/gcc/avr/5.4.0/../../../../avr/lib/avrxmega7\libatxmega128a4u.a(eeupd_byte.o)
exit                                              c:/program files/avr8-gnu-toolchain-win32_x86/bin/../lib/gcc/avr/5.4.0/avrxmega7\libgcc.a(_exit.o)
                                                  c:/program files/avr8-gnu-toolchain-win32_x86/bin/../lib/gcc/avr/5.4.0/../../../../avr/lib/avrxmega7/crtatxmega128a4u.o
fgetc                                             c:/program files/avr8-gnu-toolchain-win32_x86/bin/../lib/gcc/avr/5.4.0/../../../../avr/lib/avrxmega7\libc.a(fgetc.o)
                                                  c:/program files/avr8-gnu-toolchain-win32_x86/bin/../lib/gcc/avr/5.4.0/../../../../avr/lib/avrxmega7\libc.a(vfscanf_std.o)
fputc                                             c:/program files/avr8-gnu-toolchain-win32_x86/bin/../lib/gcc/avr/5.4.0/../../../../avr/lib/avrxmega7\libc.a(fputc.o)
                                                  c:/program files/avr8-gnu-toolchain-win32_x86/bin/../lib/gcc/avr/5.4.0/../../../../avr/lib/avrxmega7\libc.a(vfprintf_std.o)
isr_ISO14443_2A_TCD0_CCC_vect                     Bin/ISO14443-2A.o
isr_ISO15693_CODEC_DEMOD_IN_INT0_VECT             Bin/ISO15693.o
isr_ISO15693_CODEC_TIMER_LOADMOD_CCB_VECT         Bin/ISO15693.o
isr_ISO15693_CODEC_TIMER_SAMPLING_CCC_VECT        Bin/ISO15693.o
isr_Reader14443_2A_TCD0_CCC_vect                  Bin/Reader14443-2A.o
                                                  Bin/ISO14443-2A.o
isr_SniffISO14443_2A_CODEC_TIMER_LOADMOD_CCB_VECT Bin/SniffISO14443-2A.o
isr_func_CODEC_DEMOD_IN_INT0_VECT                 Bin/EM4233.o
                                                  Bin/TITagitstandard.o
                                                  Bin/Sl2s2002.o
                                                  Bin/Vicinity.o
                                                  Bin/ISO15693.o
                                                  Bin/NTAG215.o
                                                  Bin/NFC_Command.o
                                                  Bin/Sniff14443A.o
                                                  Bin/Reader14443A.o
                                                  Bin/Crypto1.o
                                                  Bin/MifareClassic.o
                                                  Bin/MifareUltralight.o
                                                  Bin/SniffISO14443-2A.o
                                                  Bin/Reader14443-2A.o
                                                  Bin/ISO14443-2A.o
                                                  Bin/Codec.o
                                                  Bin/CommandLine.o
                                                  Bin/Commands.o
                                                  Bin/AntennaLevel.o
                                                  Bin/Button.o
                                                  Bin/Configuration.o
                                                  Bin/Chameleon-Mini.o
                                                  Bin/ISRSharing.o
isr_func_CODEC_TIMER_LOADMOD_CCB_VECT             Bin/EM4233.o
                                                  Bin/TITagitstandard.o
                                                  Bin/Sl2s2002.o
                                                  Bin/Vicinity.o
                                                  Bin/ISO15693.o
                                                  Bin/NTAG215.o
                                                  Bin/NFC_Command.o
                                                  Bin/Sniff14443A.o
                                                  Bin/Reader14443A.o
                                                  Bin/Crypto1.o
                                                  Bin/MifareClassic.o
                                                  Bin/MifareUltralight.o
                                                  Bin/SniffISO14443-2A.o
                                                  Bin/Reader14443-2A.o
                                                  Bin/ISO14443-2A.o
                                                  Bin/Codec.o
                                                  Bin/CommandLine.o
                                                  Bin/Commands.o
                                                  Bin/AntennaLevel.o
                                                  Bin/Button.o
                                                  Bin/Configuration.o
                                                  Bin/Chameleon-Mini.o
isr_func_TCD0_CCC_vect                            Bin/EM4233.o
                                                  Bin/TITagitstandard.o
                                                  Bin/Sl2s2002.o
                                                  Bin/Vicinity.o
                                                  Bin/ISO15693.o
                                                  Bin/NTAG215.o
                                                  Bin/NFC_Command.o
                                                  Bin/Sniff14443A.o
                                                  Bin/Reader14443A.o
                                                  Bin/Crypto1.o
                                                  Bin/MifareClassic.o
                                                  Bin/MifareUltralight.o
                                                  Bin/SniffISO14443-2A.o
                                                  Bin/Reader14443-2A.o
                                                  Bin/ISO14443-2A.o
                                                  Bin/Codec.o
                                                  Bin/CommandLine.o
                                                  Bin/Commands.o
                                                  Bin/AntennaLevel.o
                                                  Bin/Button.o
                                                  Bin/Configuration.o
                                                  Bin/Chameleon-Mini.o
                                                  Bin/ISRSharing.o
isspace                                           c:/program files/avr8-gnu-toolchain-win32_x86/bin/../lib/gcc/avr/5.4.0/../../../../avr/lib/avrxmega7\libc.a(isspace.o)
                                                  c:/program files/avr8-gnu-toolchain-win32_x86/bin/../lib/gcc/avr/5.4.0/../../../../avr/lib/avrxmega7\libc.a(vfscanf_std.o)
loggedIn                                          Bin/EM4233.o
main                                              Bin/Chameleon-Mini.o
                                                  c:/program files/avr8-gnu-toolchain-win32_x86/bin/../lib/gcc/avr/5.4.0/../../../../avr/lib/avrxmega7/crtatxmega128a4u.o
memcmp                                            c:/program files/avr8-gnu-toolchain-win32_x86/bin/../lib/gcc/avr/5.4.0/../../../../avr/lib/avrxmega7\libc.a(memcmp.o)
                                                  Bin/HIDClassDevice.o
                                                  Bin/NTAG215.o
                                                  Bin/NFC_Command.o
                                                  Bin/Reader14443A.o
                                                  Bin/MifareClassic.o
                                                  Bin/MifareUltralight.o
memcpy                                            c:/program files/avr8-gnu-toolchain-win32_x86/bin/../lib/gcc/avr/5.4.0/../../../../avr/lib/avrxmega7\libc.a(memcpy.o)
                                                  c:/program files/avr8-gnu-toolchain-win32_x86/bin/../lib/gcc/avr/5.4.0/../../../../avr/lib/avrxmega7\libc.a(memmove.o)
                                                  Bin/RNDISClassDevice.o
                                                  Bin/HIDClassDevice.o
                                                  Bin/Reader14443A.o
                                                  Bin/Reader14443-2A.o
                                                  Bin/Log.o
memcpy_P                                          c:/program files/avr8-gnu-toolchain-win32_x86/bin/../lib/gcc/avr/5.4.0/../../../../avr/lib/avrxmega7\libc.a(memcpy_P.o)
                                                  Bin/RNDISClassDevice.o
                                                  Bin/Reader14443A.o
                                                  Bin/Configuration.o
memmove                                           c:/program files/avr8-gnu-toolchain-win32_x86/bin/../lib/gcc/avr/5.4.0/../../../../avr/lib/avrxmega7\libc.a(memmove.o)
                                                  Bin/Reader14443A.o
                                                  Bin/MifareUltralight.o
                                                  Bin/Log.o
memset                                            c:/program files/avr8-gnu-toolchain-win32_x86/bin/../lib/gcc/avr/5.4.0/../../../../avr/lib/avrxmega7\libc.a(memset.o)
                                                  Bin/HIDClassDevice.o
                                                  Bin/NTAG215.o
                                                  Bin/Reader14443A.o
                                                  Bin/MifareUltralight.o
rand                                              c:/program files/avr8-gnu-toolchain-win32_x86/bin/../lib/gcc/avr/5.4.0/../../../../avr/lib/avrxmega7\libc.a(rand.o)
                                                  Bin/Random.o
rand_r                                            c:/program files/avr8-gnu-toolchain-win32_x86/bin/../lib/gcc/avr/5.4.0/../../../../avr/lib/avrxmega7\libc.a(rand.o)
removeParityBits                                  Bin/Reader14443A.o
snprintf                                          c:/program files/avr8-gnu-toolchain-win32_x86/bin/../lib/gcc/avr/5.4.0/../../../../avr/lib/avrxmega7\libc.a(snprintf.o)
                                                  Bin/Sniff14443A.o
                                                  Bin/Reader14443A.o
snprintf_P                                        c:/program files/avr8-gnu-toolchain-win32_x86/bin/../lib/gcc/avr/5.4.0/../../../../avr/lib/avrxmega7\libc.a(snprintf_p.o)
                                                  Bin/Reader14443A.o
                                                  Bin/Commands.o
srand                                             c:/program files/avr8-gnu-toolchain-win32_x86/bin/../lib/gcc/avr/5.4.0/../../../../avr/lib/avrxmega7\libc.a(rand.o)
sscanf_P                                          c:/program files/avr8-gnu-toolchain-win32_x86/bin/../lib/gcc/avr/5.4.0/../../../../avr/lib/avrxmega7\libc.a(sscanf_p.o)
                                                  Bin/Commands.o
strchr                                            c:/program files/avr8-gnu-toolchain-win32_x86/bin/../lib/gcc/avr/5.4.0/../../../../avr/lib/avrxmega7\libc.a(strchr.o)
                                                  Bin/Commands.o
strchr_P                                          c:/program files/avr8-gnu-toolchain-win32_x86/bin/../lib/gcc/avr/5.4.0/../../../../avr/lib/avrxmega7\libc.a(strchr_P.o)
                                                  c:/program files/avr8-gnu-toolchain-win32_x86/bin/../lib/gcc/avr/5.4.0/../../../../avr/lib/avrxmega7\libc.a(vfscanf_std.o)
strcmp_P                                          c:/program files/avr8-gnu-toolchain-win32_x86/bin/../lib/gcc/avr/5.4.0/../../../../avr/lib/avrxmega7\libc.a(strcmp_P.o)
                                                  Bin/CommandLine.o
                                                  Bin/Commands.o
                                                  Bin/Map.o
strcpy                                            c:/program files/avr8-gnu-toolchain-win32_x86/bin/../lib/gcc/avr/5.4.0/../../../../avr/lib/avrxmega7\libc.a(strcpy.o)
                                                  Bin/Reader14443A.o
strncpy_P                                         c:/program files/avr8-gnu-toolchain-win32_x86/bin/../lib/gcc/avr/5.4.0/../../../../avr/lib/avrxmega7\libc.a(strncpy_P.o)
                                                  Bin/Map.o
strnlen                                           c:/program files/avr8-gnu-toolchain-win32_x86/bin/../lib/gcc/avr/5.4.0/../../../../avr/lib/avrxmega7\libc.a(strnlen.o)
                                                  c:/program files/avr8-gnu-toolchain-win32_x86/bin/../lib/gcc/avr/5.4.0/../../../../avr/lib/avrxmega7\libc.a(vfprintf_std.o)
strnlen_P                                         c:/program files/avr8-gnu-toolchain-win32_x86/bin/../lib/gcc/avr/5.4.0/../../../../avr/lib/avrxmega7\libc.a(strnlen_P.o)
                                                  c:/program files/avr8-gnu-toolchain-win32_x86/bin/../lib/gcc/avr/5.4.0/../../../../avr/lib/avrxmega7\libc.a(vfprintf_std.o)
t                                                 Bin/NFC_Command.o
ungetc                                            c:/program files/avr8-gnu-toolchain-win32_x86/bin/../lib/gcc/avr/5.4.0/../../../../avr/lib/avrxmega7\libc.a(ungetc.o)
                                                  c:/program files/avr8-gnu-toolchain-win32_x86/bin/../lib/gcc/avr/5.4.0/../../../../avr/lib/avrxmega7\libc.a(vfscanf_std.o)
vfprintf                                          c:/program files/avr8-gnu-toolchain-win32_x86/bin/../lib/gcc/avr/5.4.0/../../../../avr/lib/avrxmega7\libc.a(vfprintf_std.o)
                                                  c:/program files/avr8-gnu-toolchain-win32_x86/bin/../lib/gcc/avr/5.4.0/../../../../avr/lib/avrxmega7\libc.a(snprintf_p.o)
                                                  c:/program files/avr8-gnu-toolchain-win32_x86/bin/../lib/gcc/avr/5.4.0/../../../../avr/lib/avrxmega7\libc.a(snprintf.o)
vfscanf                                           c:/program files/avr8-gnu-toolchain-win32_x86/bin/../lib/gcc/avr/5.4.0/../../../../avr/lib/avrxmega7\libc.a(vfscanf_std.o)
                                                  c:/program files/avr8-gnu-toolchain-win32_x86/bin/../lib/gcc/avr/5.4.0/../../../../avr/lib/avrxmega7\libc.a(sscanf_p.o)
